
final_project.elf:     file format elf32-littlenios2
final_project.elf
architecture: nios2:r1, flags 0x00000112:
EXEC_P, HAS_SYMS, D_PAGED
start address 0x04000244

Program Header:
    LOAD off    0x00001000 vaddr 0x04000000 paddr 0x04000000 align 2**12
         filesz 0x00000020 memsz 0x00000020 flags r-x
    LOAD off    0x00001020 vaddr 0x04000020 paddr 0x04000020 align 2**12
         filesz 0x0001acd0 memsz 0x0001acd0 flags r-x
    LOAD off    0x0001bcf0 vaddr 0x0401acf0 paddr 0x04021ee0 align 2**12
         filesz 0x000071f0 memsz 0x000071f0 flags rw-
    LOAD off    0x000230d0 vaddr 0x040290d0 paddr 0x040290d0 align 2**12
         filesz 0x00000000 memsz 0x00000270 flags rw-

Sections:
Idx Name          Size      VMA       LMA       File off  Algn
  0 .entry        00000020  04000000  04000000  00001000  2**5
                  CONTENTS, ALLOC, LOAD, READONLY, CODE
  1 .exceptions   00000224  04000020  04000020  00001020  2**2
                  CONTENTS, ALLOC, LOAD, READONLY, CODE
  2 .text         0001a260  04000244  04000244  00001244  2**2
                  CONTENTS, ALLOC, LOAD, READONLY, CODE
  3 .rodata       0000084c  0401a4a4  0401a4a4  0001b4a4  2**2
                  CONTENTS, ALLOC, LOAD, READONLY, DATA
  4 .rwdata       000071f0  0401acf0  04021ee0  0001bcf0  2**2
                  CONTENTS, ALLOC, LOAD, DATA, SMALL_DATA
  5 .bss          00000270  040290d0  040290d0  000230d0  2**2
                  ALLOC, SMALL_DATA
  6 .sdram        00000000  04029340  04029340  00022ee0  2**0
                  CONTENTS
  7 .comment      00000023  00000000  00000000  00022ee0  2**0
                  CONTENTS, READONLY
  8 .debug_aranges 000019a0  00000000  00000000  00022f08  2**3
                  CONTENTS, READONLY, DEBUGGING
  9 .debug_info   0003edb3  00000000  00000000  000248a8  2**0
                  CONTENTS, READONLY, DEBUGGING
 10 .debug_abbrev 0000f9f2  00000000  00000000  0006365b  2**0
                  CONTENTS, READONLY, DEBUGGING
 11 .debug_line   00012802  00000000  00000000  0007304d  2**0
                  CONTENTS, READONLY, DEBUGGING
 12 .debug_frame  00005834  00000000  00000000  00085850  2**2
                  CONTENTS, READONLY, DEBUGGING
 13 .debug_str    0000a20e  00000000  00000000  0008b084  2**0
                  CONTENTS, READONLY, DEBUGGING
 14 .debug_loc    0001bba2  00000000  00000000  00095292  2**0
                  CONTENTS, READONLY, DEBUGGING
 15 .debug_alt_sim_info 00000060  00000000  00000000  000b0e34  2**2
                  CONTENTS, READONLY, DEBUGGING
 16 .debug_ranges 00002548  00000000  00000000  000b0e98  2**3
                  CONTENTS, READONLY, DEBUGGING
 17 .thread_model 00000003  00000000  00000000  000bb50e  2**0
                  CONTENTS, READONLY
 18 .cpu          0000000c  00000000  00000000  000bb511  2**0
                  CONTENTS, READONLY
 19 .qsys         00000001  00000000  00000000  000bb51d  2**0
                  CONTENTS, READONLY
 20 .simulation_enabled 00000001  00000000  00000000  000bb51e  2**0
                  CONTENTS, READONLY
 21 .sysid_hash   00000004  00000000  00000000  000bb51f  2**0
                  CONTENTS, READONLY
 22 .sysid_base   00000004  00000000  00000000  000bb523  2**0
                  CONTENTS, READONLY
 23 .sysid_time   00000004  00000000  00000000  000bb527  2**0
                  CONTENTS, READONLY
 24 .stderr_dev   00000009  00000000  00000000  000bb52b  2**0
                  CONTENTS, READONLY
 25 .stdin_dev    00000009  00000000  00000000  000bb534  2**0
                  CONTENTS, READONLY
 26 .stdout_dev   00000009  00000000  00000000  000bb53d  2**0
                  CONTENTS, READONLY
 27 .sopc_system_name 00000011  00000000  00000000  000bb546  2**0
                  CONTENTS, READONLY
 28 .quartus_project_dir 0000005a  00000000  00000000  000bb557  2**0
                  CONTENTS, READONLY
 29 .jdi          0000618f  00000000  00000000  000bb5b1  2**0
                  CONTENTS, READONLY
 30 .sopcinfo     000812ef  00000000  00000000  000c1740  2**0
                  CONTENTS, READONLY
SYMBOL TABLE:
04000000 l    d  .entry	00000000 .entry
04000020 l    d  .exceptions	00000000 .exceptions
04000244 l    d  .text	00000000 .text
0401a4a4 l    d  .rodata	00000000 .rodata
0401acf0 l    d  .rwdata	00000000 .rwdata
040290d0 l    d  .bss	00000000 .bss
04029340 l    d  .sdram	00000000 .sdram
00000000 l    d  .comment	00000000 .comment
00000000 l    d  .debug_aranges	00000000 .debug_aranges
00000000 l    d  .debug_info	00000000 .debug_info
00000000 l    d  .debug_abbrev	00000000 .debug_abbrev
00000000 l    d  .debug_line	00000000 .debug_line
00000000 l    d  .debug_frame	00000000 .debug_frame
00000000 l    d  .debug_str	00000000 .debug_str
00000000 l    d  .debug_loc	00000000 .debug_loc
00000000 l    d  .debug_alt_sim_info	00000000 .debug_alt_sim_info
00000000 l    d  .debug_ranges	00000000 .debug_ranges
00000000 l    df *ABS*	00000000 ../final_project_bsp//obj/HAL/src/crt0.o
0400028c l       .text	00000000 alt_after_alt_main
00000000 l    df *ABS*	00000000 alt_irq_handler.c
00000000 l    df *ABS*	00000000 alt_instruction_exception_entry.c
00000000 l    df *ABS*	00000000 fonts.c
00000000 l    df *ABS*	00000000 pixel_vga.c
040290d0 l     O .bss	00000004 vga_ctrl
0402032f l     O .rwdata	00000030 colors
00000000 l    df *ABS*	00000000 Dhcp.cpp
040290d4 l     O .bss	00000004 _ZL11INADDR_NONE
04001990 l     F .text	00000060 _Z41__static_initialization_and_destruction_0ii
040019f0 l     F .text	00000030 _GLOBAL__sub_I__ZN9DhcpClass13beginWithDHCPEPhmm
00000000 l    df *ABS*	00000000 Dns.cpp
040290d8 l     O .bss	00000004 _ZL11INADDR_NONE
040024e8 l     F .text	00000060 _Z41__static_initialization_and_destruction_0ii
04002548 l     F .text	00000030 _GLOBAL__sub_I__ZN9DNSClient5beginERK9IPAddress
00000000 l    df *ABS*	00000000 Ethernet.cpp
040290dc l     O .bss	00000004 _ZL11INADDR_NONE
040290e8 l     O .bss	00000008 _ZGVZN13EthernetClass5beginEPhmmE6s_dhcp
0402915c l     O .bss	0000005c _ZZN13EthernetClass5beginEPhmmE6s_dhcp
04002fbc l     F .text	00000068 _Z41__static_initialization_and_destruction_0ii
04003024 l     F .text	00000030 _GLOBAL__sub_I__ZN13EthernetClass17_dnsServerAddressE
00000000 l    df *ABS*	00000000 EthernetClient.cpp
040290f4 l     O .bss	00000004 _ZL11INADDR_NONE
04004224 l     F .text	00000060 _Z41__static_initialization_and_destruction_0ii
04004284 l     F .text	00000030 _GLOBAL__sub_I__ZN14EthernetClient7connectEPKct
00000000 l    df *ABS*	00000000 EthernetServer.cpp
040290f8 l     O .bss	00000004 _ZL11INADDR_NONE
04004c6c l     F .text	00000060 _Z41__static_initialization_and_destruction_0ii
04004ccc l     F .text	00000030 _GLOBAL__sub_I__ZN14EthernetServer11server_portE
00000000 l    df *ABS*	00000000 EthernetUdp.cpp
040290fc l     O .bss	00000004 _ZL11INADDR_NONE
040054f8 l     F .text	00000060 _Z41__static_initialization_and_destruction_0ii
04005558 l     F .text	00000030 _GLOBAL__sub_I__ZN11EthernetUDP5beginEt
00000000 l    df *ABS*	00000000 socket.cpp
04029100 l     O .bss	00000004 _ZL11INADDR_NONE
04021e6c l     O .rwdata	00000002 _ZL10local_port
040291c8 l     O .bss	00000040 _ZL5state
04005e58 l     F .text	0000006c _ZL11getSnRX_RSRh
04005ec4 l     F .text	0000011c _ZL9read_datahtPht
040063dc l     F .text	0000008c _ZL11getSnTX_FSRh
04006468 l     F .text	00000158 _ZL10write_datahtPKht
040069d8 l     F .text	00000060 _Z41__static_initialization_and_destruction_0ii
04006a38 l     F .text	00000030 _GLOBAL__sub_I__ZN13EthernetClass14socketPortRandEt
00000000 l    df *ABS*	00000000 IPAddress.cpp
04029104 l     O .bss	00000004 _ZL11INADDR_NONE
0400746c l     F .text	00000060 _Z41__static_initialization_and_destruction_0ii
040074cc l     F .text	00000030 _GLOBAL__sub_I__ZN9IPAddressC2Ev
00000000 l    df *ABS*	00000000 SPI.cpp
00000000 l    df *ABS*	00000000 w5100.cpp
04029108 l     O .bss	00000004 _ZL11INADDR_NONE
0402910f l     O .bss	00000001 _ZZN10W5100Class4initEvE11initialized
0400818c l     F .text	00000060 _Z41__static_initialization_and_destruction_0ii
040081ec l     F .text	00000030 _GLOBAL__sub_I__ZN10W5100Class4chipE
00000000 l    df *ABS*	00000000 main.cpp
04029110 l     O .bss	00000004 _ZL8vga_ctrl
0402035f l     O .rwdata	00000030 _ZL6colors
04029114 l     O .bss	00000004 _ZL11INADDR_NONE
040085e8 l     F .text	00000060 _Z41__static_initialization_and_destruction_0ii
04008648 l     F .text	00000030 _GLOBAL__sub_I_mac
00000000 l    df *ABS*	00000000 si_class_type_info.cc
00000000 l    df *ABS*	00000000 tinfo.cc
00000000 l    df *ABS*	00000000 eh_personality.cc
04008998 l     F .text	000000a4 _ZL21size_of_encoded_valueh
04008a3c l     F .text	0000020c _ZL28read_encoded_value_with_basehjPKhPj
04008c48 l     F .text	00000054 _ZL15get_ttype_entryP16lsda_header_infom
04008c9c l     F .text	0000008c _ZL21base_of_encoded_valuehP15_Unwind_Context
04008d28 l     F .text	00000134 _ZL17parse_lsda_headerP15_Unwind_ContextPKhP16lsda_header_info
04008e5c l     F .text	00000088 _ZL16get_adjusted_ptrPKSt9type_infoS1_PPv.constprop.3
04008ee4 l     F .text	000001c0 _ZL28check_compact_exception_specPKSt9type_infoPvPKhij
040090a4 l     F .text	000000a8 _ZL20check_exception_specP16lsda_header_infoPKSt9type_infoPvl
00000000 l    df *ABS*	00000000 del_op.cc
00000000 l    df *ABS*	00000000 eh_throw.cc
04009980 l     F .text	00000044 _ZL23__gxx_exception_cleanup19_Unwind_Reason_CodeP17_Unwind_Exception
00000000 l    df *ABS*	00000000 pure.cc
00000000 l    df *ABS*	00000000 guard.cc
00000000 l    df *ABS*	00000000 eh_catch.cc
00000000 l    df *ABS*	00000000 class_type_info.cc
00000000 l    df *ABS*	00000000 eh_terminate.cc
00000000 l    df *ABS*	00000000 eh_unex_handler.cc
00000000 l    df *ABS*	00000000 eh_alloc.cc
0400a12c l     F .text	000000b8 _ZN12_GLOBAL__N_14pool4freeEPv.constprop.4
04029208 l     O .bss	00000010 _ZN12_GLOBAL__N_114emergency_poolE
0400a1e4 l     F .text	000000a8 _ZN12_GLOBAL__N_14pool8allocateEj.constprop.5
0400a394 l     F .text	0000005c _GLOBAL__sub_I___cxa_allocate_exception
00000000 l    df *ABS*	00000000 eh_call.cc
00000000 l    df *ABS*	00000000 eh_globals.cc
04029118 l     O .bss	00000008 _ZL10eh_globals
00000000 l    df *ABS*	00000000 eh_exception.cc
00000000 l    df *ABS*	00000000 eh_term_handler.cc
00000000 l    df *ABS*	00000000 guard_error.cc
00000000 l    df *ABS*	00000000 lib2-divmod.c
00000000 l    df *ABS*	00000000 unwind-sjlj.c
0400a690 l     F .text	00000118 _Unwind_ForcedUnwind_Phase2
04029120 l     O .bss	00000004 fc_static
0400a7a8 l     F .text	000000c0 _Unwind_RaiseException_Phase2
0400a868 l     F .text	00000030 uw_install_context.isra.1
00000000 l    df *ABS*	00000000 abort.c
00000000 l    df *ABS*	00000000 clock.c
00000000 l    df *ABS*	00000000 impure.c
04020390 l     O .rwdata	00000424 impure_data
00000000 l    df *ABS*	00000000 malloc.c
00000000 l    df *ABS*	00000000 mallocr.c
00000000 l    df *ABS*	00000000 memcmp.c
00000000 l    df *ABS*	00000000 memcpy.c
00000000 l    df *ABS*	00000000 memset.c
00000000 l    df *ABS*	00000000 printf.c
00000000 l    df *ABS*	00000000 puts.c
00000000 l    df *ABS*	00000000 sbrkr.c
00000000 l    df *ABS*	00000000 signal.c
00000000 l    df *ABS*	00000000 signalr.c
00000000 l    df *ABS*	00000000 strcmp.c
00000000 l    df *ABS*	00000000 strlen.c
00000000 l    df *ABS*	00000000 timesr.c
00000000 l    df *ABS*	00000000 vfprintf.c
0401aa42 l     O .rodata	00000010 zeroes.4404
0400df5c l     F .text	000000bc __sbprintf
0401aa52 l     O .rodata	00000010 blanks.4403
00000000 l    df *ABS*	00000000 wsetup.c
00000000 l    df *ABS*	00000000 dtoa.c
0400e16c l     F .text	00000200 quorem
00000000 l    df *ABS*	00000000 fflush.c
00000000 l    df *ABS*	00000000 findfp.c
0400fc9c l     F .text	00000008 __fp_unlock
0400fcb0 l     F .text	0000019c __sinit.part.1
0400fe4c l     F .text	00000008 __fp_lock
00000000 l    df *ABS*	00000000 mallocr.c
00000000 l    df *ABS*	00000000 fvwrite.c
00000000 l    df *ABS*	00000000 fwalk.c
00000000 l    df *ABS*	00000000 int_errno.c
00000000 l    df *ABS*	00000000 locale.c
04020bdc l     O .rwdata	00000020 lc_ctype_charset
04020bbc l     O .rwdata	00000020 lc_message_charset
04020bfc l     O .rwdata	00000038 lconv
00000000 l    df *ABS*	00000000 makebuf.c
00000000 l    df *ABS*	00000000 memchr.c
00000000 l    df *ABS*	00000000 memmove.c
00000000 l    df *ABS*	00000000 mprec.c
0401aa80 l     O .rodata	0000000c p05.2768
00000000 l    df *ABS*	00000000 mallocr.c
00000000 l    df *ABS*	00000000 s_fpclassify.c
00000000 l    df *ABS*	00000000 stdio.c
00000000 l    df *ABS*	00000000 vfprintf.c
0401269c l     F .text	000000fc __sprint_r.part.0
0401abb4 l     O .rodata	00000010 blanks.4348
0401aba4 l     O .rodata	00000010 zeroes.4349
04013c28 l     F .text	000000bc __sbprintf
00000000 l    df *ABS*	00000000 writer.c
00000000 l    df *ABS*	00000000 closer.c
00000000 l    df *ABS*	00000000 mallocr.c
00000000 l    df *ABS*	00000000 fclose.c
00000000 l    df *ABS*	00000000 fputwc.c
00000000 l    df *ABS*	00000000 fstatr.c
00000000 l    df *ABS*	00000000 isattyr.c
00000000 l    df *ABS*	00000000 lseekr.c
00000000 l    df *ABS*	00000000 readr.c
00000000 l    df *ABS*	00000000 wbuf.c
00000000 l    df *ABS*	00000000 wcrtomb.c
00000000 l    df *ABS*	00000000 wctomb_r.c
00000000 l    df *ABS*	00000000 libgcc2.c
00000000 l    df *ABS*	00000000 libgcc2.c
00000000 l    df *ABS*	00000000 adddf3.c
00000000 l    df *ABS*	00000000 divdf3.c
00000000 l    df *ABS*	00000000 eqdf2.c
00000000 l    df *ABS*	00000000 gedf2.c
00000000 l    df *ABS*	00000000 ledf2.c
00000000 l    df *ABS*	00000000 muldf3.c
00000000 l    df *ABS*	00000000 subdf3.c
00000000 l    df *ABS*	00000000 fixdfsi.c
00000000 l    df *ABS*	00000000 floatsidf.c
00000000 l    df *ABS*	00000000 floatunsidf.c
00000000 l    df *ABS*	00000000 libgcc2.c
00000000 l    df *ABS*	00000000 libgcc2.c
00000000 l    df *ABS*	00000000 alt_close.c
04017730 l     F .text	0000003c alt_get_errno
00000000 l    df *ABS*	00000000 alt_dev.c
0401783c l     F .text	0000002c alt_dev_null_write
00000000 l    df *ABS*	00000000 alt_errno.c
00000000 l    df *ABS*	00000000 alt_exit.c
00000000 l    df *ABS*	00000000 alt_fstat.c
0401789c l     F .text	0000003c alt_get_errno
00000000 l    df *ABS*	00000000 alt_getpid.c
00000000 l    df *ABS*	00000000 alt_isatty.c
040179a8 l     F .text	0000003c alt_get_errno
00000000 l    df *ABS*	00000000 alt_kill.c
04017a88 l     F .text	0000003c alt_get_errno
00000000 l    df *ABS*	00000000 alt_load.c
04017bf4 l     F .text	00000068 alt_load_section
00000000 l    df *ABS*	00000000 alt_lseek.c
04017ce0 l     F .text	0000003c alt_get_errno
00000000 l    df *ABS*	00000000 alt_main.c
00000000 l    df *ABS*	00000000 alt_malloc_lock.c
00000000 l    df *ABS*	00000000 alt_read.c
04017eb4 l     F .text	0000003c alt_get_errno
00000000 l    df *ABS*	00000000 alt_release_fd.c
00000000 l    df *ABS*	00000000 alt_sbrk.c
04021ed0 l     O .rwdata	00000004 heap_end
00000000 l    df *ABS*	00000000 alt_times.c
04018100 l     F .text	0000003c alt_get_errno
00000000 l    df *ABS*	00000000 alt_usleep.c
00000000 l    df *ABS*	00000000 alt_write.c
040181e4 l     F .text	0000003c alt_get_errno
00000000 l    df *ABS*	00000000 alt_sys_init.c
04018318 l     F .text	00000034 alt_dev_reg
04020ddc l     O .rwdata	00001060 jtag_uart
00000000 l    df *ABS*	00000000 altera_avalon_jtag_uart_fd.c
00000000 l    df *ABS*	00000000 altera_avalon_jtag_uart_init.c
04018610 l     F .text	0000020c altera_avalon_jtag_uart_irq
0401881c l     F .text	000000a0 altera_avalon_jtag_uart_timeout
00000000 l    df *ABS*	00000000 altera_avalon_jtag_uart_ioctl.c
00000000 l    df *ABS*	00000000 altera_avalon_jtag_uart_read.c
00000000 l    df *ABS*	00000000 altera_avalon_jtag_uart_write.c
00000000 l    df *ABS*	00000000 altera_avalon_spi.c
00000000 l    df *ABS*	00000000 altera_avalon_timer_sc.c
04019050 l     F .text	00000078 alt_avalon_timer_sc_irq
00000000 l    df *ABS*	00000000 alt_alarm_start.c
00000000 l    df *ABS*	00000000 alt_busy_sleep.c
00000000 l    df *ABS*	00000000 alt_dcache_flush_all.c
00000000 l    df *ABS*	00000000 alt_dev_llist_insert.c
04019410 l     F .text	0000003c alt_get_errno
00000000 l    df *ABS*	00000000 alt_do_ctors.c
00000000 l    df *ABS*	00000000 alt_do_dtors.c
00000000 l    df *ABS*	00000000 alt_icache_flush_all.c
00000000 l    df *ABS*	00000000 alt_iic.c
00000000 l    df *ABS*	00000000 alt_iic_isr_register.c
00000000 l    df *ABS*	00000000 alt_io_redirect.c
04019884 l     F .text	000000c4 alt_open_fd
00000000 l    df *ABS*	00000000 alt_irq_vars.c
00000000 l    df *ABS*	00000000 alt_open.c
040199c4 l     F .text	0000003c alt_get_errno
04019a00 l     F .text	000000c4 alt_file_locked
00000000 l    df *ABS*	00000000 alt_tick.c
00000000 l    df *ABS*	00000000 altera_nios2_gen2_irq.c
00000000 l    df *ABS*	00000000 alt_find_dev.c
00000000 l    df *ABS*	00000000 alt_find_file.c
00000000 l    df *ABS*	00000000 alt_get_fd.c
00000000 l    df *ABS*	00000000 alt_icache_flush.c
00000000 l    df *ABS*	00000000 atexit.c
00000000 l    df *ABS*	00000000 exit.c
00000000 l    df *ABS*	00000000 __atexit.c
00000000 l    df *ABS*	00000000 __call_atexit.c
04029158 g     O .bss	00000004 alt_instruction_exception_handler
0400a2ec g     F .text	00000028 __cxa_free_exception
0400463c  w    F .text	00000048 _ZN9DNSClientC2Ev
040045dc  w    F .text	00000060 _ZN10W5100Class11readSnDPORTEh
04008940 g     F .text	00000008 _ZNKSt9type_info15__is_function_pEv
04011e10 g     F .text	00000074 _mprec_log10
04001860 g     F .text	00000040 _ZN9DhcpClass15getDhcpServerIpEv
0400a0cc g     F .text	00000018 _ZSt10unexpectedv
04011efc g     F .text	0000008c __any_on
04005c84 g     F .text	0000004c _ZN13EthernetClass12socketStatusEh
040141c4 g     F .text	00000054 _isatty_r
0401aa8c g     O .rodata	00000028 __mprec_tinytens
0400795c g     F .text	000000d8 _ZN10W5100Class7isW5200Ev
04017df0 g     F .text	0000007c alt_main
040032dc  w    F .text	00000040 _ZN10W5100Class21setRetransmissionTimeEt
0400b7a0 g     F .text	000000c0 _puts_r
0400560c  w    F .text	00000028 _ZN11EthernetUDP9localPortEv
04029240 g     O .bss	00000100 alt_irq
0400a488 g     F .text	00000004 _ZN10__cxxabiv115__forced_unwindD1Ev
0401a5ac  w    O .rodata	00000018 _ZTV14EthernetServer
040031c4  w    F .text	00000038 _ZN10W5100Class13getSubnetMaskEPh
040071a8 g     F .text	00000070 _ZN9IPAddressC1Ehhhh
04014218 g     F .text	00000060 _lseek_r
0400a924 g     F .text	00000020 .hidden _Unwind_GetIPInfo
040018a0 g     F .text	00000040 _ZN9DhcpClass14getDnsServerIpEv
04021ee0 g       *ABS*	00000000 __flash_rwdata_start
04003f30 g     F .text	000000b0 _ZN14EthernetClient9connectedEv
04007a34 g     F .text	000000d8 _ZN10W5100Class7isW5500Ev
04002ac8 g     F .text	00000058 _ZN13EthernetClass10linkStatusEv
0401625c g     F .text	00000088 .hidden __eqdf2
0400717c g     F .text	0000002c _ZN9IPAddressC2Ev
04009a54 g     F .text	00000084 __cxa_rethrow
04005924 g     F .text	00000360 _ZN13EthernetClass20socketBeginMulticastEh9IPAddresst
040030b8  w    F .text	00000064 _ZN11EthernetUDPC2Ev
0400a8b0 g     F .text	00000014 .hidden _Unwind_SjLj_Unregister
0400a108 g     F .text	00000014 _ZSt14set_unexpectedPFvvE
040040bc g     F .text	0000006c _ZN14EthernetClient9localPortEv
0400a914 g     F .text	00000010 .hidden _Unwind_GetIP
04029340 g       *ABS*	00000000 __alt_heap_start
0400bb6c g     F .text	0000005c _kill_r
0400b764 g     F .text	0000003c printf
0401ecd3 g     O .rwdata	00000980 uname_font_data
04014430 g     F .text	0000009c _wcrtomb_r
0401ec74 g     O .rwdata	0000005f title_widths
04004684 g     F .text	000000a0 _ZN14EthernetServer5beginEv
0400b934 g     F .text	00000084 _signal_r
04003418  w    F .text	00000038 _ZN10W5100Class9writeSUBREPKh
04012638 g     F .text	0000005c __sseek
0400ffec g     F .text	00000010 __sinit
040142d8 g     F .text	00000140 __swbuf_r
0402910d g     O .bss	00000001 _ZN10W5100Class11CH_BASE_MSBE
0401acf0 g     O .rwdata	00000c97 server_font_data
0400a368 g     F .text	0000002c __cxa_free_dependent_exception
04008678 g     F .text	00000010 _ZN10__cxxabiv120__si_class_type_infoD2Ev
04010ab4 g     F .text	0000007c _setlocale_r
0401a7a4  w    O .rodata	00000025 _ZTSN10__cxxabiv120__si_class_type_infoE
0400fe54 g     F .text	00000068 __sfmoreglue
04002e50 g     F .text	00000058 _ZN13EthernetClass13setSubnetMaskE9IPAddress
04017e90 g     F .text	00000024 __malloc_unlock
0400a488 g     F .text	00000004 _ZN10__cxxabiv115__forced_unwindD2Ev
040075c4 g     F .text	00000088 _Z12SPI_transferh
0400326c  w    F .text	00000038 _ZN10W5100Class12setIPAddressEPKh
04009cfc g     F .text	00000020 _ZSt18uncaught_exceptionv
04009af8 g     F .text	00000020 __cxa_deleted_virtual
04010e30 g     F .text	0000015c memmove
0400a460 g     F .text	00000004 _ZNSt9exceptionD2Ev
0400ffd4 g     F .text	00000018 _cleanup
0400335c  w    F .text	0000004c _ZN10W5100Class5writeEth
04010f8c g     F .text	000000a8 _Balloc
040044c0  w    F .text	00000074 _ZN10W5100Class6readSnEhtPht
04000290 g     F .text	000000ac set_color_palette
040162e4 g     F .text	000000dc .hidden __gtdf2
0401a978  w    O .rodata	00000014 _ZTVSt13bad_exception
04019dbc g     F .text	00000024 altera_nios2_gen2_irq_init
04005104 g     F .text	00000134 _ZN11EthernetUDP11parsePacketEv
04006e5c  w    F .text	00000060 _ZN10W5100Class12readSnTX_FSREh
04000000 g     F .entry	0000001c __reset
040009d0 g     F .text	00000024 _ZN9DhcpClass12presend_DHCPEv
0401813c g     F .text	00000078 times
04004534  w    F .text	00000060 _ZN10W5100Class10readSnPORTEh
0400a960 g     F .text	00000008 .hidden _Unwind_GetRegionStart
040009f4 g     F .text	00000450 _ZN9DhcpClass17send_DHCP_MESSAGEEht
04000020 g       *ABS*	00000000 __flash_exceptions_start
04014168 g     F .text	0000005c _fstat_r
04008504  w    F .text	00000020 _ZN10W5100Class5setSSEv
04029130 g     O .bss	00000004 errno
040017a0 g     F .text	00000040 _ZN9DhcpClass10getLocalIpEv
040125b4 g     F .text	00000008 __seofread
0400ab3c g     F .text	00000074 .hidden _Unwind_Backtrace
04029144 g     O .bss	00000004 alt_argv
04029e3c g       *ABS*	00000000 _gp
040181b4 g     F .text	00000030 usleep
04017988 g     F .text	00000020 getpid
0400974c g     F .text	00000230 __cxa_call_unexpected
0401cbb4 g     O .rwdata	0000005f channel_widths
040042b4  w    F .text	00000034 _ZN6Client12rawIPAddressER9IPAddress
04009b8c g     F .text	00000008 __cxa_get_exception_ptr
04004cfc  w    F .text	00000034 _ZN6ClientC1Ev
040048c8 g     F .text	00000188 _ZN14EthernetServer6acceptEv
04020c5c g     O .rwdata	00000180 alt_fd_list
0401a58c  w    O .rodata	0000000c _ZTI14EthernetClient
0400aa50 g     F .text	00000044 .hidden _Unwind_SjLj_ForcedUnwind
0400a8e0 g     F .text	00000018 .hidden _Unwind_GetCFA
0400a0e4 g     F .text	00000014 _ZSt13set_terminatePFvvE
04019de0 g     F .text	00000090 alt_find_dev
0400bd40 g     F .text	00000008 _times_r
0400b4c4 g     F .text	00000148 memcpy
04003234  w    F .text	00000038 _ZN10W5100Class13getMACAddressEPh
04007044  w    F .text	00000060 _ZN10W5100Class11readSnRX_RDEh
0400a314 g     F .text	00000054 __cxa_allocate_dependent_exception
0400fca4 g     F .text	0000000c _cleanup_r
04003c48 g     F .text	00000078 _ZN14EthernetClient4readEPhj
04009d94 g     F .text	00000018 _ZNK10__cxxabiv117__class_type_info20__do_find_public_srcEiPKvPKS0_S2_
04017548 g     F .text	000000dc .hidden __floatsidf
04019948 g     F .text	0000007c alt_io_redirect
040070f4  w    F .text	00000050 _ZN10W5100Class5RBASEEh
040163c0 g     F .text	000000f4 .hidden __ltdf2
0401bb04 g     O .rwdata	0000005f server_widths
0401a4a4 g       *ABS*	00000000 __DTOR_END__
04003ab0 g     F .text	0000005c _ZN14EthernetClient17availableForWriteEv
04009dac g     F .text	00000010 _ZN10__cxxabiv117__class_type_infoD1Ev
0400b860 g     F .text	00000014 puts
0401a0ac g     F .text	0000009c alt_exception_cause_generated_bad_addr
040124ec g     F .text	00000074 __fpclassifyd
04011d6c g     F .text	000000a4 __ratio
04013c0c g     F .text	0000001c __vfiprintf_internal
04018a14 g     F .text	0000021c altera_avalon_jtag_uart_read
0400ac14 g     F .text	00000014 malloc
0400b734 g     F .text	00000030 _printf_r
0400a5d4 g     F .text	00000064 .hidden __udivsi3
040179e4 g     F .text	000000a4 isatty
04006f20  w    F .text	00000060 _ZN10W5100Class11readSnTX_WREh
0400b9b8 g     F .text	000000bc _raise_r
0401aadc g     O .rodata	000000c8 __mprec_tens
04004308  w    F .text	00000048 _ZN14EthernetClientD2Ev
04007ecc g     F .text	00000254 _ZN10W5100Class4readEtPht
04002f00 g     F .text	0000006c _ZN13EthernetClass24setRetransmissionTimeoutEt
04010b30 g     F .text	0000000c __locale_charset
040025f4 g     F .text	000002a4 _ZN13EthernetClass5beginEPhmm
0400311c  w    F .text	00000038 _ZN10W5100Class12setGatewayIpEPKh
0401a01c g     F .text	00000090 alt_icache_flush
0402912c g     O .bss	00000004 __malloc_top_pad
0400bbc8 g     F .text	00000004 _getpid_r
04006c3c  w    F .text	00000050 _ZN10W5100Class9writeSnIREhh
040034f8  w    F .text	00000038 _ZN10W5100Class9writeSIPREPKh
04021eb0 g     O .rwdata	00000004 __mb_cur_max
0400724c g     F .text	00000044 _ZN9IPAddressC1EPKh
04010b60 g     F .text	0000000c _localeconv_r
04005d1c g     F .text	00000074 _ZN13EthernetClass12socketListenEh
04011398 g     F .text	0000003c __i2b
04010470 g     F .text	000004bc __sfvwrite_r
04009f2c g     F .text	000000b8 _ZNK10__cxxabiv117__class_type_info10__do_catchEPKSt9type_infoPPvj
0400ba74 g     F .text	000000a8 __sigtramp_r
0401a678  w    O .rodata	0000000e _ZTS11EthernetUDP
0400b874 g     F .text	00000054 _sbrk_r
04021e5c  w    O .rwdata	00000008 _ZTI6Server
04001a80  w    F .text	00000028 _ZN11EthernetUDP10remotePortEv
0401a814  w    O .rodata	00000020 _ZTVSt9type_info
04000558 g     F .text	000000ac _ZN9DhcpClass13beginWithDHCPEPhmm
04008288  w    F .text	00000040 _ZN10W5100Class9writeRMSREh
04005fe0 g     F .text	000002ac _ZN13EthernetClass10socketRecvEhPhs
040042e8  w    F .text	00000020 _ZN13EthernetClass11dnsServerIPEv
04014278 g     F .text	00000060 _read_r
0400a468 g     F .text	0000000c _ZNKSt9exception4whatEv
04021ec8 g     O .rwdata	00000004 alt_max_fd
04002d10 g     F .text	00000050 _ZN13EthernetClass10subnetMaskEv
04013e5c g     F .text	000000f0 _fclose_r
04006ebc  w    F .text	00000064 _ZN10W5100Class12writeSnTX_WREht
0400821c  w    F .text	00000040 _ZN10W5100Class7writeMREh
0400fc6c g     F .text	00000030 fflush
04029128 g     O .bss	00000004 __malloc_max_sbrked_mem
04005588  w    F .text	00000034 _ZN3UDP12rawIPAddressER9IPAddress
04008524  w    F .text	00000020 _ZN10W5100Class7resetSSEv
04007290 g     F .text	00000120 _ZN9IPAddress10fromStringEPKc
04005448 g     F .text	000000b0 _ZN11EthernetUDP14beginMulticastE9IPAddresst
04006344 g     F .text	00000098 _ZN13EthernetClass10socketPeekEh
040150c8 g     F .text	000008ac .hidden __adddf3
040073f4 g     F .text	00000034 _ZN9IPAddressaSEm
0401a7d8  w    O .rodata	0000002c _ZTVN10__cxxabiv120__si_class_type_infoE
0401a5c4  w    O .rodata	00000038 _ZTV6Client
04011b14 g     F .text	0000010c __b2d
04014b90 g     F .text	00000538 .hidden __umoddi3
04017d1c g     F .text	000000d4 lseek
04005050 g     F .text	0000002c _ZN11EthernetUDP5writeEh
040017e0 g     F .text	00000040 _ZN9DhcpClass13getSubnetMaskEv
04009df0 g     F .text	0000006c _ZNK10__cxxabiv117__class_type_info11__do_upcastEPKS0_PKvRNS0_15__upcast_resultE
0401b988 g     O .rwdata	0000017c server_char_indices
0400997c g     F .text	00000004 _ZdlPv
0400a498 g     F .text	00000010 _ZN9__gnu_cxx20recursive_init_errorD1Ev
04021ea0 g     O .rwdata	00000004 _global_impure_ptr
04011f88 g     F .text	00000564 _realloc_r
04029340 g       *ABS*	00000000 __bss_end
04019794 g     F .text	000000f0 alt_iic_isr_register
04004414  w    F .text	0000004c _ZN14EthernetClientneERKS_
04019cb4 g     F .text	00000108 alt_tick
04003794 g     F .text	0000031c _ZN14EthernetClient7connectE9IPAddresst
0400a898 g     F .text	00000018 .hidden _Unwind_SjLj_Register
04014618 g     F .text	00000578 .hidden __udivdi3
04001614 g     F .text	0000018c _ZN9DhcpClass10checkLeaseEv
040140c4 g     F .text	00000024 _fputwc_r
0401aab4 g     O .rodata	00000028 __mprec_bigtens
040043e8  w    F .text	0000002c _ZN14EthernetClientneEb
0401117c g     F .text	00000104 __s2b
0400abb0 g     F .text	00000018 abort
04017624 g     F .text	000000a8 .hidden __floatunsidf
04008408  w    F .text	0000003c _ZN10W5100Class8readSnCREh
04011854 g     F .text	00000060 __mcmp
04007538 g     F .text	00000028 _Z6millisv
04009c48 g     F .text	000000b4 __cxa_end_catch
0401000c g     F .text	00000018 __fp_lock_all
04019748 g     F .text	0000004c alt_ic_irq_enabled
0400a464 g     F .text	00000004 _ZNSt13bad_exceptionD2Ev
04019c18 g     F .text	0000009c alt_alarm_stop
0400507c g     F .text	00000088 _ZN11EthernetUDP5writeEPKhj
0401a61c  w    O .rodata	00000050 _ZTV11EthernetUDP
0400717c g     F .text	0000002c _ZN9IPAddressC1Ev
04002cc0 g     F .text	00000050 _ZN13EthernetClass7localIPEv
040043b8  w    F .text	00000030 _ZN14EthernetClienteqEb
0402914c g     O .bss	00000004 alt_irq_active
04008360  w    F .text	0000002c _ZN10W5100Class17readPSTATUS_W5200Ev
0400a0a4 g     F .text	00000018 _ZSt9terminatev
040028f8 g     F .text	00000068 _ZN13EthernetClass5beginEPh9IPAddressS1_
040000fc g     F .exceptions	000000d4 alt_irq_handler
04020c34 g     O .rwdata	00000028 alt_dev_null
04021e6f g     O .rwdata	00000006 mac
040035fc  w    F .text	00000020 _ZN10W5100Class7getChipEv
04000408 g     F .text	00000150 draw_rectangle
0400a490 g     F .text	00000004 _ZN10__cxxabiv119__foreign_exceptionD2Ev
04002b20 g     F .text	00000060 _ZN13EthernetClass14hardwareStatusEv
04004cfc  w    F .text	00000034 _ZN6ClientC2Ev
040033a8  w    F .text	00000038 _ZN10W5100Class8writeGAREPKh
0401a870  w    O .rodata	00000022 _ZTSN10__cxxabiv117__class_type_infoE
04007580 g     F .text	00000024 _Z20SPI_beginTransactionPv
040193c8 g     F .text	00000048 alt_dcache_flush_all
04011280 g     F .text	00000068 __hi0bits
040290f0 g     O .bss	00000001 Ethernet
04007428 g     F .text	00000044 _ZNK9IPAddresseqEPKh
04021e84  w    O .rwdata	00000008 _ZTISt9exception
04021e4c  w    O .rwdata	00000008 _ZTI6Client
04006fe0  w    F .text	00000064 _ZN10W5100Class12writeSnRX_RDEht
040174c8 g     F .text	00000080 .hidden __fixdfsi
04005e0c g     F .text	0000004c _ZN13EthernetClass16socketDisconnectEh
04006b0c  w    F .text	0000006c _ZN10W5100Class7writeSnEhth
040071a8 g     F .text	00000070 _ZN9IPAddressC2Ehhhh
040053b8 g     F .text	0000006c _ZN11EthernetUDP4peekEv
04006bec  w    F .text	00000050 _ZN10W5100Class9writeSnMREhh
04021ee0 g       *ABS*	00000000 __ram_rwdata_end
04007218 g     F .text	00000034 _ZN9IPAddressC2Em
0400259c  w    F .text	00000028 _ZNK9IPAddresscvmEv
04001ff0 g     F .text	000004f8 _ZN9DNSClient15ProcessResponseEtR9IPAddress
0400893c g     F .text	00000004 _ZNSt9type_infoD1Ev
04021ec0 g     O .rwdata	00000008 alt_dev_list
0400a490 g     F .text	00000004 _ZN10__cxxabiv119__foreign_exceptionD1Ev
04007144  w    F .text	00000038 _ZN10W5100Class23hasOffsetAddressMappingEv
04006a68  w    F .text	00000044 _ZN10W5100Class4readEt
04018220 g     F .text	000000f8 write
04006c8c  w    F .text	0000003c _ZN10W5100Class8readSnIREh
040290e4 g     O .bss	00000004 _ZN13EthernetClass5_dhcpE
04008950 g     F .text	00000004 _ZNSt9type_infoD0Ev
0401acf0 g       *ABS*	00000000 __ram_rodata_end
040178d8 g     F .text	000000b0 fstat
04004ecc g     F .text	000000c4 _ZN11EthernetUDP11beginPacketEPKct
04004d98 g     F .text	000000a8 _ZN11EthernetUDP5beginEt
0401a598  w    O .rodata	00000011 _ZTS14EthernetClient
0401a9d8  w    O .rodata	0000000c _ZTIN9__gnu_cxx20recursive_init_errorE
04017ac4 g     F .text	00000130 kill
040163c0 g     F .text	000000f4 .hidden __ledf2
040075a4 g     F .text	00000020 _Z18SPI_endTransactionv
040115cc g     F .text	00000140 __pow5mult
040127b0 g     F .text	0000145c ___vfiprintf_internal_r
0402913c g     O .bss	00000004 __nlocale_changed
0400a638 g     F .text	00000058 .hidden __umodsi3
04008948 g     F .text	00000008 _ZNKSt9type_info11__do_upcastEPKN10__cxxabiv117__class_type_infoEPPv
04006d68  w    F .text	00000048 _ZN10W5100Class11writeSnDHAREhPh
0400a0f8 g     F .text	00000010 _ZSt13get_terminatev
04006db0  w    F .text	00000048 _ZN10W5100Class11writeSnDIPREhPh
04029340 g       *ABS*	00000000 end
0401a608  w    O .rodata	00000011 _ZTS14EthernetServer
04008120 g     F .text	0000006c _ZN10W5100Class9execCmdSnEh7SockCMD
04007830 g     F .text	00000074 _ZN10W5100Class9softResetEv
04005634 g     F .text	00000044 _ZN13EthernetClass14socketPortRandEt
0400ab24 g     F .text	00000018 .hidden _Unwind_DeleteException
04007b0c g     F .text	000000c0 _ZN10W5100Class13getLinkStatusEv
04006d04  w    F .text	00000064 _ZN10W5100Class11writeSnPORTEht
04018550 g     F .text	000000c0 altera_avalon_jtag_uart_init
04004d30  w    F .text	00000068 _ZN14EthernetClientC2Eh
04002ea8 g     F .text	00000058 _ZN13EthernetClass12setGatewayIPE9IPAddress
040001d0 g     F .exceptions	00000074 alt_instruction_exception_entry
04008334  w    F .text	0000002c _ZN10W5100Class18readVERSIONR_W5500Ev
04009e5c g     F .text	000000d0 _ZNK10__cxxabiv117__class_type_info12__do_dyncastEiNS0_10__sub_kindEPKS0_PKvS3_S5_RNS0_16__dyncast_resultE
0401a475 g       *ABS*	00000000 __CTOR_LIST__
08000000 g       *ABS*	00000000 __alt_stack_pointer
040190c8 g     F .text	0000007c alt_avalon_timer_sc_init
040176cc g     F .text	00000064 .hidden __clzsi2
04003568  w    F .text	00000054 _ZN10W5100Class8writeRTREt
04009d1c g     F .text	00000078 _ZNK10__cxxabiv117__class_type_info11__do_upcastEPKS0_PPv
04003cc0 g     F .text	00000088 _ZN14EthernetClient4peekEv
04018c30 g     F .text	00000224 altera_avalon_jtag_uart_write
04004d30  w    F .text	00000068 _ZN14EthernetClientC1Eh
0400fffc g     F .text	00000004 __sfp_lock_acquire
0401a900  w    O .rodata	00000012 _ZTSSt13bad_exception
04003fe0 g     F .text	00000058 _ZN14EthernetClient6statusEv
04010d4c g     F .text	000000e4 memchr
0400bd48 g     F .text	000021f8 ___vfprintf_internal_r
04004460  w    F .text	00000038 _ZN14EthernetClient20setConnectionTimeoutEt
04010160 g     F .text	00000310 _free_r
04002a8c g     F .text	0000003c _ZN13EthernetClass4initEh
04010b3c g     F .text	00000010 __locale_mb_cur_max
04006df8  w    F .text	00000064 _ZN10W5100Class12writeSnDPORTEht
0401eaf8 g     O .rwdata	0000017c title_char_indices
0401a2ac g     F .text	00000180 __call_exitprocs
04006910 g     F .text	000000c8 _ZN13EthernetClass13socketSendUDPEh
04029138 g     O .bss	00000004 __mlocale_changed
04021ea8 g     O .rwdata	00000004 __malloc_sbrk_base
04000244 g     F .text	0000004c _start
04029150 g     O .bss	00000004 _alt_tick_rate
0401a804  w    O .rodata	0000000d _ZTSSt9type_info
04009ad8 g     F .text	00000020 __cxa_pure_virtual
0401170c g     F .text	00000148 __lshift
040030b8  w    F .text	00000064 _ZN11EthernetUDPC1Ev
04018e54 g     F .text	000001fc alt_avalon_spi_command
04029154 g     O .bss	00000004 _alt_nticks
0401bb63 g     O .rwdata	00000ed4 channel_font_data
0400bb30 g     F .text	00000018 signal
04017ef0 g     F .text	000000fc read
04018384 g     F .text	00000068 alt_sys_init
04007560 g     F .text	00000020 _Z9SPI_beginv
04001aa8 g     F .text	00000040 _ZN9DNSClient5beginERK9IPAddress
0401a194 g     F .text	00000118 __register_exitproc
04001a20  w    F .text	00000038 _ZNK9IPAddresseqERKS_
04004350  w    F .text	00000038 _ZN14EthernetClientD0Ev
040086bc g     F .text	00000160 _ZNK10__cxxabiv120__si_class_type_info12__do_dyncastEiNS_17__class_type_info10__sub_kindEPKS1_PKvS4_S6_RNS1_16__dyncast_resultE
04003d48 g     F .text	00000060 _ZN14EthernetClient4readEv
040113d4 g     F .text	000001f8 __multiply
040188bc g     F .text	00000068 altera_avalon_jtag_uart_close
04004e40 g     F .text	0000002c _ZN11EthernetUDP9availableEv
0401acf0 g       *ABS*	00000000 __ram_rwdata_start
0400a980 g     F .text	000000d0 .hidden _Unwind_SjLj_RaiseException
0401a4a4 g       *ABS*	00000000 __ram_rodata_start
04029218 g     O .bss	00000028 __malloc_current_mallinfo
0400aa94 g     F .text	00000044 .hidden _Unwind_SjLj_Resume
04011c20 g     F .text	0000014c __d2b
0401a9a0  w    O .rodata	00000014 _ZTVN10__cxxabiv119__foreign_exceptionE
0400893c g     F .text	00000004 _ZNSt9type_infoD2Ev
04004308  w    F .text	00000048 _ZN14EthernetClientD1Ev
0400a494 g     F .text	00000004 _ZN10__cxxabiv119__foreign_exceptionD0Ev
0402910e g     O .bss	00000001 W5100
04004724 g     F .text	000001a4 _ZN14EthernetServer9availableEv
04001ae8 g     F .text	00000130 _ZN9DNSClient9inet_atonEPKcR9IPAddress
04003488  w    F .text	00000038 _ZN10W5100Class9writeSHAREPKh
040088b8 g     F .text	00000084 _ZNK10__cxxabiv120__si_class_type_info11__do_upcastEPKNS_17__class_type_infoEPKvRNS1_15__upcast_resultE
04003084  w    F .text	00000034 _ZN3UDPC1Ev
040035bc  w    F .text	00000040 _ZN10W5100Class8writeRCREh
040183ec g     F .text	00000060 altera_avalon_jtag_uart_read_fd
04019f78 g     F .text	000000a4 alt_get_fd
04006b78  w    F .text	00000074 _ZN10W5100Class7writeSnEhtPht
04004388  w    F .text	00000030 _ZN14EthernetClientcvbEv
04019270 g     F .text	00000158 alt_busy_sleep
040065c0 g     F .text	00000164 _ZN13EthernetClass10socketSendEhPKht
04005238 g     F .text	00000094 _ZN11EthernetUDP4readEv
04021e94  w    O .rwdata	00000008 _ZTIN10__cxxabiv119__foreign_exceptionE
040083b8  w    F .text	00000050 _ZN10W5100Class9writeSnCREhh
04013d44 g     F .text	00000054 _close_r
04003450  w    F .text	00000038 _ZN10W5100Class8readSUBREPh
040041b8 g     F .text	0000006c _ZN14EthernetClient10remotePortEv
04002df8 g     F .text	00000058 _ZN13EthernetClass10setLocalIPE9IPAddress
04001a58  w    F .text	00000028 _ZN11EthernetUDP8remoteIPEv
0400838c  w    F .text	0000002c _ZN10W5100Class17readPHYCFGR_W5500Ev
0400b448 g     F .text	0000007c memcmp
040184ac g     F .text	00000050 altera_avalon_jtag_uart_close_fd
04029340 g       *ABS*	00000000 __alt_stack_base
040184fc g     F .text	00000054 altera_avalon_jtag_uart_ioctl_fd
0401a9e4  w    O .rodata	00000014 _ZTVN9__gnu_cxx20recursive_init_errorE
040084e4  w    F .text	00000020 _ZN10W5100Class6initSSEv
04008678 g     F .text	00000010 _ZN10__cxxabiv120__si_class_type_infoD1Ev
0400e018 g     F .text	00000154 __swsetup_r
0400aad8 g     F .text	0000004c .hidden _Unwind_SjLj_Resume_or_Rethrow
04015974 g     F .text	000008e8 .hidden __divdf3
040029cc g     F .text	000000c0 _ZN13EthernetClass5beginEPh9IPAddressS1_S1_S1_
0400febc g     F .text	00000118 __sfp
04011e84 g     F .text	00000078 __copybits
040032a4  w    F .text	00000038 _ZN10W5100Class12getIPAddressEPh
04008940 g     F .text	00000008 _ZNKSt9type_info14__is_pointer_pEv
040207b4 g     O .rwdata	00000408 __malloc_av_
04010008 g     F .text	00000004 __sinit_lock_release
040164b4 g     F .text	00000718 .hidden __muldf3
04012560 g     F .text	00000054 __sread
0401a964  w    O .rodata	00000014 _ZTVSt9exception
0400a48c g     F .text	00000004 _ZN10__cxxabiv115__forced_unwindD0Ev
04019e70 g     F .text	00000108 alt_find_file
0401944c g     F .text	000000a4 alt_dev_llist_insert
04017e6c g     F .text	00000024 __malloc_lock
04018050 g     F .text	000000b0 sbrk
0401a8a0  w    O .rodata	0000002c _ZTVN10__cxxabiv117__class_type_infoE
04003530  w    F .text	00000038 _ZN10W5100Class8readSIPREPh
040099c4 g     F .text	00000090 __cxa_throw
0400fc10 g     F .text	0000005c _fflush_r
0400a944 g     F .text	00000010 .hidden _Unwind_SetIP
04013d98 g     F .text	000000c4 _calloc_r
0401f654 g     O .rwdata	0000017c uname_char_indices
040018e0 g     F .text	000000b0 _ZN9DhcpClass9printByteEPch
04007218 g     F .text	00000034 _ZN9IPAddressC1Em
040290d0 g       *ABS*	00000000 __bss_start
0400b60c g     F .text	00000128 memset
04003084  w    F .text	00000034 _ZN3UDPC2Ev
04008544 g     F .text	000000a4 main
04005678 g     F .text	000002ac _ZN13EthernetClass11socketBeginEht
04029148 g     O .bss	00000004 alt_envp
04002b80 g     F .text	000000fc _ZN13EthernetClass8maintainEv
04029124 g     O .bss	00000004 __malloc_max_total_mem
04004b10 g     F .text	00000054 _ZN14EthernetServer5writeEh
0401844c g     F .text	00000060 altera_avalon_jtag_uart_write_fd
04014418 g     F .text	00000018 __swbuf
0400a448 g     F .text	0000000c __cxa_get_globals_fast
04003154  w    F .text	00000038 _ZN10W5100Class12getGatewayIpEPh
04004038 g     F .text	00000084 _ZN14EthernetClienteqERKS_
0400a4a8 g     F .text	00000034 _ZN9__gnu_cxx20recursive_init_errorD0Ev
0400628c g     F .text	000000b8 _ZN13EthernetClass19socketRecvAvailableEh
04012694 g     F .text	00000008 __sclose
04002db0 g     F .text	00000048 _ZN13EthernetClass13setMACAddressEPKh
08000000 g       *ABS*	00000000 __alt_heap_limit
04013f4c g     F .text	00000014 fclose
0400e36c g     F .text	00001688 _dtoa_r
0400ac3c g     F .text	0000080c _malloc_r
0401458c g     F .text	00000030 __ascii_wctomb
0400a474 g     F .text	0000000c _ZNKSt13bad_exception4whatEv
04021ecc g     O .rwdata	00000004 alt_errno
0401a5fc  w    O .rodata	0000000c _ZTI14EthernetServer
0400bb48 g     F .text	00000010 _init_signal
0401a894  w    O .rodata	0000000c _ZTIN10__cxxabiv117__class_type_infoE
04008308  w    F .text	0000002c _ZN10W5100Class18readVERSIONR_W5200Ev
0401092c g     F .text	000000c4 _fwalk
0401ca38 g     O .rwdata	0000017c channel_char_indices
0400a464 g     F .text	00000004 _ZNSt13bad_exceptionD1Ev
04021e3c  w    O .rwdata	00000008 _ZTI3UDP
040055bc  w    F .text	00000050 _ZN11EthernetUDP4readEPcj
0400a4dc g     F .text	00000084 .hidden __divsi3
0401003c g     F .text	00000124 _malloc_trim_r
0401a4a4 g       *ABS*	00000000 __CTOR_END__
0400bbcc g     F .text	000000dc strcmp
0401a4a4 g       *ABS*	00000000 __flash_rodata_start
0401a98c  w    O .rodata	00000014 _ZTVN10__cxxabiv115__forced_unwindE
0401a4a4 g       *ABS*	00000000 __DTOR_LIST__
04000e44 g     F .text	000007d0 _ZN9DhcpClass17parseDHCPResponseEmRm
04002f6c g     F .text	00000050 _ZN13EthernetClass22setRetransmissionCountEh
0401625c g     F .text	00000088 .hidden __nedf2
0401f82f g     O .rwdata	00000925 message_font_data
040034c0  w    F .text	00000038 _ZN10W5100Class8readSHAREPh
0401834c g     F .text	00000038 alt_irq_init
040067a8 g     F .text	000000a0 _ZN13EthernetClass16socketBufferDataEhtPKht
04017fec g     F .text	00000064 alt_release_fd
04008688 g     F .text	00000034 _ZN10__cxxabiv120__si_class_type_infoD0Ev
0401abc4 g     O .rodata	00000100 .hidden __clz_tab
04029134 g     O .bss	00000004 _PathLocale
04006724 g     F .text	00000084 _ZN13EthernetClass19socketSendAvailableEh
0401a148 g     F .text	00000014 atexit
04009b7c g     F .text	00000010 __cxa_guard_release
04013ce4 g     F .text	00000060 _write_r
04010b6c g     F .text	00000018 setlocale
04020154 g     O .rwdata	0000017c message_char_indices
040076d0 g     F .text	00000160 _ZN10W5100Class4initEv
0400a978 g     F .text	00000008 .hidden _Unwind_GetTextRelBase
0400a3f0 g     F .text	00000058 __cxa_call_terminate
04021e64  w    O .rwdata	00000008 _ZTS6Server
04021ea4 g     O .rwdata	00000004 _impure_ptr
04021e8c  w    O .rwdata	00000008 _ZTIN10__cxxabiv115__forced_unwindE
04029140 g     O .bss	00000004 alt_argc
0400f9f4 g     F .text	0000021c __sflush_r
04019550 g     F .text	00000060 _do_dtors
04010b58 g     F .text	00000008 __locale_cjk_lang
04007bcc g     F .text	00000300 _ZN10W5100Class5writeEtPKht
040074fc g     F .text	0000003c _Z5delayj
04021e44  w    O .rwdata	00000005 _ZTS3UDP
0400a11c g     F .text	00000010 _ZSt14get_unexpectedv
04000020 g       .exceptions	00000000 alt_irq_entry
04011ab0 g     F .text	00000064 __ulp
0400a968 g     F .text	00000008 .hidden _Unwind_FindEnclosingFunction
04010024 g     F .text	00000018 __fp_unlock_all
04002c7c g     F .text	00000044 _ZN13EthernetClass10MACAddressEPh
040202d0 g     O .rwdata	0000005f message_widths
04021eb8 g     O .rwdata	00000008 alt_fs_list
0401a940  w    O .rodata	00000024 _ZTSN10__cxxabiv119__foreign_exceptionE
0401a4dc  w    O .rodata	0000004c _ZTV3UDP
0400364c  w    F .text	0000003c _ZN9DhcpClassC2Ev
0400a954 g     F .text	0000000c .hidden _Unwind_GetLanguageSpecificData
04009b74 g     F .text	00000008 __cxa_guard_abort
04009b94 g     F .text	000000b4 __cxa_begin_catch
040078a4 g     F .text	000000b8 _ZN10W5100Class7isW5100Ev
04009dac g     F .text	00000010 _ZN10__cxxabiv117__class_type_infoD2Ev
0400a0bc g     F .text	00000010 _ZN10__cxxabiv112__unexpectedEPFvvE
040290e0 g     O .bss	00000004 _ZN13EthernetClass17_dnsServerAddressE
04003e48 g     F .text	000000e8 _ZN14EthernetClient4stopEv
04000020 g       *ABS*	00000000 __ram_exceptions_start
04010b84 g     F .text	0000000c localeconv
04002d60 g     F .text	00000050 _ZN13EthernetClass9gatewayIPEv
04006f80  w    F .text	00000060 _ZN10W5100Class12readSnRX_RSREh
0400a484 g     F .text	00000004 _ZNSt13bad_exceptionD0Ev
04006cc8  w    F .text	0000003c _ZN10W5100Class8readSnSREh
04021e9c g     O .rwdata	00000004 _ZN10__cxxabiv119__terminate_handlerE
04006aac  w    F .text	00000060 _ZN10W5100Class6readSnEht
040195e4 g     F .text	00000050 alt_ic_isr_register
04003b60 g     F .text	0000008c _ZN14EthernetClient5writeEPKhj
0400033c g     F .text	000000cc init_color_palette
0400a28c g     F .text	00000060 __cxa_allocate_exception
0401a7cc  w    O .rodata	0000000c _ZTIN10__cxxabiv120__si_class_type_infoE
04002578  w    F .text	00000024 _ZN9IPAddress11raw_addressEv
04021ee0 g       *ABS*	00000000 _edata
04029340 g       *ABS*	00000000 _end
0400914c g     F .text	00000600 __gxx_personality_sj0
04003054  w    F .text	00000030 _ZN3UDP14beginMulticastE9IPAddresst
04013f60 g     F .text	00000164 __fputwc
04004b64 g     F .text	00000108 _ZN14EthernetServer5writeEPKhj
04021e54  w    O .rwdata	00000008 _ZTS6Client
04000244 g       *ABS*	00000000 __ram_exceptions_end
04018924 g     F .text	000000f0 altera_avalon_jtag_uart_ioctl
04003da8 g     F .text	000000a0 _ZN14EthernetClient5flushEv
0400361c  w    F .text	00000030 _ZN10W5100Class5setSSEh
04000648 g     F .text	00000388 _ZN9DhcpClass18request_DHCP_leaseEv
0400a460 g     F .text	00000004 _ZNSt9exceptionD1Ev
040196bc g     F .text	0000008c alt_ic_irq_disable
04005d90 g     F .text	0000007c _ZN13EthernetClass13socketConnectEhPht
040125bc g     F .text	0000007c __swrite
04004594  w    F .text	00000048 _ZN10W5100Class10readSnDIPREhPh
04021eac g     O .rwdata	00000004 __malloc_trim_threshold
04010b4c g     F .text	0000000c __locale_msgcharset
0401a15c g     F .text	00000038 exit
0400a8f8 g     F .text	0000001c .hidden _Unwind_SetGR
04004498  w    F .text	00000028 _ZN10W5100Class7CH_BASEEv
040109f0 g     F .text	000000c4 _fwalk_reent
0400881c g     F .text	0000009c _ZNK10__cxxabiv120__si_class_type_info20__do_find_public_srcEiPKvPKNS_17__class_type_infoES2_
040118b4 g     F .text	000001fc __mdiff
04005cd0 g     F .text	0000004c _ZN13EthernetClass11socketCloseEh
04009fe4 g     F .text	000000c0 _ZN10__cxxabiv111__terminateEPFvvE
040052cc g     F .text	000000ec _ZN11EthernetUDP4readEPhj
0400a560 g     F .text	00000074 .hidden __modsi3
04003b0c g     F .text	00000054 _ZN14EthernetClient5writeEh
04008494  w    F .text	00000050 _ZN10W5100Class14writeSnTX_SIZEEhh
04000604 g     F .text	00000044 _ZN9DhcpClass16reset_DHCP_leaseEv
08000000 g       *ABS*	00000000 __alt_data_end
04000020 g     F .exceptions	00000000 alt_exception
04005424 g     F .text	00000024 _ZN11EthernetUDP5flushEv
04010000 g     F .text	00000004 __sfp_lock_release
0401a914  w    O .rodata	0000000c _ZTISt13bad_exception
04000000 g       *ABS*	00000000 __alt_mem_sdram
04002898 g     F .text	00000060 _ZN13EthernetClass5beginEPh9IPAddress
0400764c g     F .text	00000084 _Z18SPI_transfer_multiPhj
0400331c  w    F .text	00000040 _ZN10W5100Class22setRetransmissionCountEh
04008444  w    F .text	00000050 _ZN10W5100Class14writeSnRX_SIZEEhh
040291b8 g     O .bss	00000010 _ZN14EthernetServer11server_portE
04017868 g     F .text	00000034 _exit
04004f90 g     F .text	00000080 _ZN11EthernetUDP11beginPacketE9IPAddresst
04004128 g     F .text	00000090 _ZN14EthernetClient8remoteIPEv
04019144 g     F .text	0000012c alt_alarm_start
0401f7d0 g     O .rwdata	0000005f uname_widths
0400318c  w    F .text	00000038 _ZN10W5100Class13setSubnetMaskEPKh
0400a8c4 g     F .text	0000001c .hidden _Unwind_GetGR
0400a454 g     F .text	0000000c __cxa_get_globals
04010b90 g     F .text	000001bc __smakebuf_r
04021e80 g     O .rwdata	00000004 _ZN10__cxxabiv120__unexpected_handlerE
0400bca8 g     F .text	00000098 strlen
0400b8c8 g     F .text	0000006c _init_signal_r
04021e78  w    O .rwdata	00000008 _ZTISt9type_info
04019ac4 g     F .text	00000154 open
0401cc13 g     O .rwdata	00001ee3 title_font_data
0401a528  w    O .rodata	00000064 _ZTV14EthernetClient
040162e4 g     F .text	000000dc .hidden __gedf2
040070a4  w    F .text	00000050 _ZN10W5100Class5SBASEEh
040031fc  w    F .text	00000038 _ZN10W5100Class13setMACAddressEPKh
0401a8f0  w    O .rodata	0000000d _ZTSSt9exception
04021e6e g     O .rwdata	00000001 _ZN10W5100Class6ss_pinE
0400abc8 g     F .text	0000004c clock
0400463c  w    F .text	00000048 _ZN9DNSClientC1Ev
0401a66c  w    O .rodata	0000000c _ZTI11EthernetUDP
04021eb4 g     O .rwdata	00000004 __wctomb
0400a480 g     F .text	00000004 _ZNSt9exceptionD0Ev
04012798 g     F .text	00000018 __sprint_r
040195b0 g     F .text	00000034 alt_icache_flush_all
04001da8 g     F .text	00000248 _ZN9DNSClient12BuildRequestEPKc
0401a9b4  w    O .rodata	00000023 _ZTSN9__gnu_cxx20recursive_init_errorE
0400a970 g     F .text	00000008 .hidden _Unwind_GetDataRelBase
0400825c  w    F .text	0000002c _ZN10W5100Class6readMREv
04021ed4 g     O .rwdata	00000004 alt_priority_mask
04004a50 g     F .text	000000c0 _ZN14EthernetServercvbEv
04005010 g     F .text	00000040 _ZN11EthernetUDP9endPacketEv
04019634 g     F .text	00000088 alt_ic_irq_enable
0400df40 g     F .text	0000001c __vfprintf_internal
040145bc g     F .text	0000005c _wctomb_r
0400724c g     F .text	00000044 _ZN9IPAddressC2EPKh
04016bcc g     F .text	000008fc .hidden __subdf3
04002960 g     F .text	0000006c _ZN13EthernetClass5beginEPh9IPAddressS1_S1_
0400364c  w    F .text	0000003c _ZN9DhcpClassC1Ev
040025c4  w    F .text	00000030 _ZN9IPAddressixEi
040112e8 g     F .text	000000b0 __lo0bits
04021ed8 g     O .rwdata	00000008 alt_alarm_list
040194f0 g     F .text	00000060 _do_ctors
0400bb58 g     F .text	00000014 __sigtramp
04009b18 g     F .text	0000005c __cxa_guard_acquire
040144cc g     F .text	000000c0 wcrtomb
040082c8  w    F .text	00000040 _ZN10W5100Class9writeTMSREh
04003bec g     F .text	0000005c _ZN14EthernetClient9availableEv
04001820 g     F .text	00000040 _ZN9DhcpClass12getGatewayIpEv
04004e6c g     F .text	00000060 _ZN11EthernetUDP4stopEv
0401776c g     F .text	000000d0 close
040073b0 g     F .text	00000044 _ZN9IPAddressaSEPKh
04001c18 g     F .text	00000190 _ZN9DNSClient13getHostByNameEPKcR9IPAddresst
04006848 g     F .text	000000c8 _ZN13EthernetClass14socketStartUDPEhPht
0401a920  w    O .rodata	00000020 _ZTSN10__cxxabiv115__forced_unwindE
04017c5c g     F .text	00000084 alt_load
04008954 g     F .text	00000044 _ZNKSt9type_info10__do_catchEPKS_PPvj
0400a498 g     F .text	00000010 _ZN9__gnu_cxx20recursive_init_errorD2Ev
0402910c g     O .bss	00000001 _ZN10W5100Class4chipE
040033e0  w    F .text	00000038 _ZN10W5100Class7readGAREPh
040140e8 g     F .text	00000080 fputwc
0400bb1c g     F .text	00000014 raise
0400ac28 g     F .text	00000014 free
04010004 g     F .text	00000004 __sinit_lock_acquire
0401105c g     F .text	00000120 __multadd
04009dbc g     F .text	00000034 _ZN10__cxxabiv117__class_type_infoD0Ev
04011034 g     F .text	00000028 _Bfree
04003688 g     F .text	0000010c _ZN14EthernetClient7connectEPKct



Disassembly of section .entry:

04000000 <__reset>:
#if NIOS2_ICACHE_SIZE > 0 && defined(ALT_ALLOW_CODE_AT_RESET) && (!defined(ALT_SIM_OPTIMIZE) || defined(NIOS2_ECC_PRESENT))
    /* Assume the instruction cache size is always a power of two. */
#if NIOS2_ICACHE_SIZE > 0x8000
    movhi r2, %hi(NIOS2_ICACHE_SIZE)
#else
    movui r2, NIOS2_ICACHE_SIZE
 4000000:	00840014 	movui	r2,4096
#endif

0:
    initi r2
 4000004:	1001483a 	initi	r2
    addi r2, r2, -NIOS2_ICACHE_LINE_SIZE
 4000008:	10bff804 	addi	r2,r2,-32
    bgt r2, zero, 0b
 400000c:	00bffd16 	blt	zero,r2,4000004 <__alt_data_end+0xfc000004>
 * Jump to the _start entry point in the .text section if reset code
 * is allowed or if optimizing for RTL simulation.
 */
#if defined(ALT_ALLOW_CODE_AT_RESET) || defined(ALT_SIM_OPTIMIZE)
    /* Jump to the _start entry point in the .text section. */
    movhi r1, %hi(_start)
 4000010:	00410034 	movhi	at,1024
    ori r1, r1, %lo(_start)
 4000014:	08409114 	ori	at,at,580
    jmp r1
 4000018:	0800683a 	jmp	at
 400001c:	00000000 	call	0 <__alt_mem_sdram-0x4000000>

Disassembly of section .exceptions:

04000020 <alt_exception>:

#else /* ALT_EXCEPTION_STACK disabled */
        /* 
         * Reserve space on normal stack for registers about to be pushed.
         */
        addi  sp, sp, -76
 4000020:	deffed04 	addi	sp,sp,-76
         * documentation for details).
         *
         * Leave a gap in the stack frame at 4(sp) for the muldiv handler to
         * store zero into.
         */
        stw   ra,  0(sp)
 4000024:	dfc00015 	stw	ra,0(sp)
        stw   r1,   8(sp)
 4000028:	d8400215 	stw	at,8(sp)
        stw   r2,  12(sp)
 400002c:	d8800315 	stw	r2,12(sp)
        stw   r3,  16(sp)
 4000030:	d8c00415 	stw	r3,16(sp)
        stw   r4,  20(sp)
 4000034:	d9000515 	stw	r4,20(sp)
        stw   r5,  24(sp)
 4000038:	d9400615 	stw	r5,24(sp)
        stw   r6,  28(sp)
 400003c:	d9800715 	stw	r6,28(sp)
        stw   r7,  32(sp)
 4000040:	d9c00815 	stw	r7,32(sp)
        rdctl r5, estatus   /* Read early to avoid usage stall */
 4000044:	000b307a 	rdctl	r5,estatus
        stw   r8,  36(sp)
 4000048:	da000915 	stw	r8,36(sp)
        stw   r9,  40(sp)
 400004c:	da400a15 	stw	r9,40(sp)
        stw   r10, 44(sp)
 4000050:	da800b15 	stw	r10,44(sp)
        stw   r11, 48(sp)
 4000054:	dac00c15 	stw	r11,48(sp)
        stw   r12, 52(sp)
 4000058:	db000d15 	stw	r12,52(sp)
        stw   r13, 56(sp)
 400005c:	db400e15 	stw	r13,56(sp)
        stw   r14, 60(sp)
 4000060:	db800f15 	stw	r14,60(sp)
        stw   r15, 64(sp)
 4000064:	dbc01015 	stw	r15,64(sp)
        /*
         * ea-4 contains the address of the instruction being executed
         * when the exception occured. For interrupt exceptions, we will
         * will be re-issue the isntruction. Store it in 72(sp)
         */
        stw   r5,  68(sp)  /* estatus */
 4000068:	d9401115 	stw	r5,68(sp)
        addi  r15, ea, -4  /* instruction that caused exception */
 400006c:	ebffff04 	addi	r15,ea,-4
        stw   r15,  72(sp)
 4000070:	dbc01215 	stw	r15,72(sp)
#else
        /*
         * Test to see if the exception was a software exception or caused 
         * by an external interrupt, and vector accordingly.
         */
        rdctl r4, ipending
 4000074:	0009313a 	rdctl	r4,ipending
        andi  r2, r5, 1
 4000078:	2880004c 	andi	r2,r5,1
        beq   r2, zero, .Lnot_irq
 400007c:	10000326 	beq	r2,zero,400008c <alt_exception+0x6c>
        beq   r4, zero, .Lnot_irq
 4000080:	20000226 	beq	r4,zero,400008c <alt_exception+0x6c>
        /*
         * Now that all necessary registers have been preserved, call 
         * alt_irq_handler() to process the interrupts.
         */

        call alt_irq_handler
 4000084:	40000fc0 	call	40000fc <alt_irq_handler>

        .section .exceptions.irqreturn, "xa"

        br    .Lexception_exit
 4000088:	00000706 	br	40000a8 <alt_exception+0x88>
         * upon completion, so we write ea (address of instruction *after*
         * the one where the exception occured) into 72(sp). The actual
         * instruction that caused the exception is written in r2, which these
         * handlers will utilize.
         */
        stw ea, 72(sp) /* EA is PC+4 so will skip over instruction causing exception */
 400008c:	df401215 	stw	ea,72(sp)
.Lunknown_16bit:
        addi.n r4, r4, 2 /* Need PC+2 to skip over instruction causing exception */
        stw r4, 72(sp)

#else /* CDX is not Enabled and all instructions are 32bits */
        ldw r2, -4(ea) /* Instruction value that caused exception */
 4000090:	e8bfff17 	ldw	r2,-4(ea)
         * debugger is present) or go into an infinite loop since the
         * handling behavior is undefined; in that case we will not return here.
         */

        /* Load exception-causing address as first argument (r4) */
        addi   r4, ea, -4
 4000094:	e93fff04 	addi	r4,ea,-4

        /* Call the instruction-exception entry */
        call   alt_instruction_exception_entry
 4000098:	40001d00 	call	40001d0 <alt_instruction_exception_entry>
         * instruction
         *
         * Return code was 0: Skip. The instruction after the exception is
         * already stored in 72(sp).
         */
        bne   r2, r0, .Lexception_exit
 400009c:	1000021e 	bne	r2,zero,40000a8 <alt_exception+0x88>

        /*
         * Otherwise, modify 72(sp) to re-issue the instruction that caused the
         * exception.
         */
        addi  r15, ea, -4  /* instruction that caused exception */
 40000a0:	ebffff04 	addi	r15,ea,-4
        stw   r15,  72(sp)
 40000a4:	dbc01215 	stw	r15,72(sp)
        /* 
         * Restore the saved registers, so that all general purpose registers 
         * have been restored to their state at the time the interrupt occured.
         */

        ldw   r5,  68(sp)
 40000a8:	d9401117 	ldw	r5,68(sp)
        ldw   ea,  72(sp)  /* This becomes the PC once eret is executed */
 40000ac:	df401217 	ldw	ea,72(sp)
        ldw   ra,   0(sp)
 40000b0:	dfc00017 	ldw	ra,0(sp)

        wrctl estatus, r5
 40000b4:	2801707a 	wrctl	estatus,r5

        ldw   r1,   8(sp)
 40000b8:	d8400217 	ldw	at,8(sp)
        ldw   r2,  12(sp)
 40000bc:	d8800317 	ldw	r2,12(sp)
        ldw   r3,  16(sp)
 40000c0:	d8c00417 	ldw	r3,16(sp)
        ldw   r4,  20(sp)
 40000c4:	d9000517 	ldw	r4,20(sp)
        ldw   r5,  24(sp)
 40000c8:	d9400617 	ldw	r5,24(sp)
        ldw   r6,  28(sp)
 40000cc:	d9800717 	ldw	r6,28(sp)
        ldw   r7,  32(sp)
 40000d0:	d9c00817 	ldw	r7,32(sp)

#if defined(ALT_EXCEPTION_STACK) && defined(ALT_STACK_CHECK)
        ldw   et, %gprel(alt_exception_old_stack_limit)(gp)
#endif

        ldw   r8,  36(sp)
 40000d4:	da000917 	ldw	r8,36(sp)
        ldw   r9,  40(sp)
 40000d8:	da400a17 	ldw	r9,40(sp)
        ldw   r10, 44(sp)
 40000dc:	da800b17 	ldw	r10,44(sp)
        ldw   r11, 48(sp)
 40000e0:	dac00c17 	ldw	r11,48(sp)
        ldw   r12, 52(sp)
 40000e4:	db000d17 	ldw	r12,52(sp)
        ldw   r13, 56(sp)
 40000e8:	db400e17 	ldw	r13,56(sp)
        ldw   r14, 60(sp)
 40000ec:	db800f17 	ldw	r14,60(sp)
        ldw   r15, 64(sp)
 40000f0:	dbc01017 	ldw	r15,64(sp)
        stw   et, %gprel(alt_stack_limit_value)(gp)
        stw   zero, %gprel(alt_exception_old_stack_limit)(gp)
#endif /* ALT_STACK_CHECK */
        ldw   sp,  76(sp)
#else /* ALT_EXCEPTION_STACK disabled */
        addi  sp, sp, 76
 40000f4:	dec01304 	addi	sp,sp,76

        /*
         * Return to the interrupted instruction.
         */

        eret
 40000f8:	ef80083a 	eret

040000fc <alt_irq_handler>:
 * instruction is present if the macro ALT_CI_INTERRUPT_VECTOR defined.
 */

void alt_irq_handler (void) __attribute__ ((section (".exceptions")));
void alt_irq_handler (void)
{
 40000fc:	defff904 	addi	sp,sp,-28
 4000100:	dfc00615 	stw	ra,24(sp)
 4000104:	df000515 	stw	fp,20(sp)
 4000108:	df000504 	addi	fp,sp,20
  
  /*
   * Notify the operating system that we are at interrupt level.
   */ 
  
  ALT_OS_INT_ENTER();
 400010c:	0001883a 	nop
#ifndef NIOS2_EIC_PRESENT
static ALT_INLINE alt_u32 ALT_ALWAYS_INLINE alt_irq_pending (void)
{
  alt_u32 active;

  NIOS2_READ_IPENDING (active);
 4000110:	0005313a 	rdctl	r2,ipending
 4000114:	e0bffe15 	stw	r2,-8(fp)

  return active;
 4000118:	e0bffe17 	ldw	r2,-8(fp)
   * Consider the case where the high priority interupt is asserted during
   * the interrupt entry sequence for a lower priority interrupt to see why
   * this is the case.
   */

  active = alt_irq_pending ();
 400011c:	e0bffb15 	stw	r2,-20(fp)

  do
  {
    i = 0;
 4000120:	e03ffd15 	stw	zero,-12(fp)
    mask = 1;
 4000124:	00800044 	movi	r2,1
 4000128:	e0bffc15 	stw	r2,-16(fp)
     * called to clear the interrupt condition.
     */

    do
    {
      if (active & mask)
 400012c:	e0fffb17 	ldw	r3,-20(fp)
 4000130:	e0bffc17 	ldw	r2,-16(fp)
 4000134:	1884703a 	and	r2,r3,r2
 4000138:	10001426 	beq	r2,zero,400018c <alt_irq_handler+0x90>
      { 
#ifdef ALT_ENHANCED_INTERRUPT_API_PRESENT
        alt_irq[i].handler(alt_irq[i].context); 
 400013c:	008100f4 	movhi	r2,1027
 4000140:	10a49004 	addi	r2,r2,-28096
 4000144:	e0fffd17 	ldw	r3,-12(fp)
 4000148:	180690fa 	slli	r3,r3,3
 400014c:	10c5883a 	add	r2,r2,r3
 4000150:	10c00017 	ldw	r3,0(r2)
 4000154:	008100f4 	movhi	r2,1027
 4000158:	10a49004 	addi	r2,r2,-28096
 400015c:	e13ffd17 	ldw	r4,-12(fp)
 4000160:	200890fa 	slli	r4,r4,3
 4000164:	1105883a 	add	r2,r2,r4
 4000168:	10800104 	addi	r2,r2,4
 400016c:	10800017 	ldw	r2,0(r2)
 4000170:	1009883a 	mov	r4,r2
 4000174:	183ee83a 	callr	r3
#else
        alt_irq[i].handler(alt_irq[i].context, i); 
#endif
        break;
 4000178:	0001883a 	nop
#ifndef NIOS2_EIC_PRESENT
static ALT_INLINE alt_u32 ALT_ALWAYS_INLINE alt_irq_pending (void)
{
  alt_u32 active;

  NIOS2_READ_IPENDING (active);
 400017c:	0005313a 	rdctl	r2,ipending
 4000180:	e0bfff15 	stw	r2,-4(fp)

  return active;
 4000184:	e0bfff17 	ldw	r2,-4(fp)
 4000188:	00000706 	br	40001a8 <alt_irq_handler+0xac>
      }
      mask <<= 1;
 400018c:	e0bffc17 	ldw	r2,-16(fp)
 4000190:	1085883a 	add	r2,r2,r2
 4000194:	e0bffc15 	stw	r2,-16(fp)
      i++;
 4000198:	e0bffd17 	ldw	r2,-12(fp)
 400019c:	10800044 	addi	r2,r2,1
 40001a0:	e0bffd15 	stw	r2,-12(fp)

    } while (1);
 40001a4:	003fe106 	br	400012c <__alt_data_end+0xfc00012c>

    active = alt_irq_pending ();
 40001a8:	e0bffb15 	stw	r2,-20(fp)
    
  } while (active);
 40001ac:	e0bffb17 	ldw	r2,-20(fp)
 40001b0:	103fdb1e 	bne	r2,zero,4000120 <__alt_data_end+0xfc000120>

  /*
   * Notify the operating system that interrupt processing is complete.
   */ 

  ALT_OS_INT_EXIT();
 40001b4:	0001883a 	nop
}
 40001b8:	0001883a 	nop
 40001bc:	e037883a 	mov	sp,fp
 40001c0:	dfc00117 	ldw	ra,4(sp)
 40001c4:	df000017 	ldw	fp,0(sp)
 40001c8:	dec00204 	addi	sp,sp,8
 40001cc:	f800283a 	ret

040001d0 <alt_instruction_exception_entry>:
 * that handler if it has been registered. Absent a handler, it will
 * break break or hang as discussed below.
 */
int 
alt_instruction_exception_entry (alt_u32 exception_pc)
{
 40001d0:	defffb04 	addi	sp,sp,-20
 40001d4:	dfc00415 	stw	ra,16(sp)
 40001d8:	df000315 	stw	fp,12(sp)
 40001dc:	df000304 	addi	fp,sp,12
 40001e0:	e13fff15 	stw	r4,-4(fp)
 * NIOS2_EXCEPTION_CAUSE_NOT_PRESENT. Your handling routine should
 * check the validity of the cause argument before proceeding.
 */
#ifdef NIOS2_HAS_EXTRA_EXCEPTION_INFO
  /* Get exception cause & "badaddr" */
  NIOS2_READ_EXCEPTION(cause);
 40001e4:	000531fa 	rdctl	r2,exception
 40001e8:	e0bffd15 	stw	r2,-12(fp)
  cause = ( (cause & NIOS2_EXCEPTION_REG_CAUSE_MASK) >>
 40001ec:	e0bffd17 	ldw	r2,-12(fp)
 40001f0:	10801f0c 	andi	r2,r2,124
 40001f4:	1004d0ba 	srli	r2,r2,2
 40001f8:	e0bffd15 	stw	r2,-12(fp)
              NIOS2_EXCEPTION_REG_CAUSE_OFST );

  NIOS2_READ_BADADDR(badaddr);
 40001fc:	0005333a 	rdctl	r2,badaddr
 4000200:	e0bffe15 	stw	r2,-8(fp)
#else
  cause = NIOS2_EXCEPTION_CAUSE_NOT_PRESENT;
  badaddr = 0;
#endif /* NIOS2_HAS_EXTRA_EXCEPTION_INFO */

  if(alt_instruction_exception_handler) {
 4000204:	d0bcc717 	ldw	r2,-3300(gp)
 4000208:	10000726 	beq	r2,zero,4000228 <alt_instruction_exception_entry+0x58>
     * Call handler. Its return value indicates whether the exception-causing
     * instruction should be re-issued. The code that called us,
     * alt_eceptions_entry.S, will look at this value and adjust the ea
     * register as necessary
     */
    return alt_instruction_exception_handler(cause, exception_pc, badaddr);
 400020c:	d0bcc717 	ldw	r2,-3300(gp)
 4000210:	e0fffd17 	ldw	r3,-12(fp)
 4000214:	e1bffe17 	ldw	r6,-8(fp)
 4000218:	e17fff17 	ldw	r5,-4(fp)
 400021c:	1809883a 	mov	r4,r3
 4000220:	103ee83a 	callr	r2
 4000224:	00000206 	br	4000230 <alt_instruction_exception_entry+0x60>
   *    (a peripheral which negates its interrupt output before its
   *    interrupt handler has been executed will cause spurious interrupts)
   */
  else {
#ifdef NIOS2_HAS_DEBUG_STUB
    NIOS2_BREAK();
 4000228:	003da03a 	break	0
      ;
#endif /* NIOS2_HAS_DEBUG_STUB */
  }

  /* We should not get here. Remove compiler warning. */
  return NIOS2_EXCEPTION_RETURN_REISSUE_INST;
 400022c:	0005883a 	mov	r2,zero
}
 4000230:	e037883a 	mov	sp,fp
 4000234:	dfc00117 	ldw	ra,4(sp)
 4000238:	df000017 	ldw	fp,0(sp)
 400023c:	dec00204 	addi	sp,sp,8
 4000240:	f800283a 	ret

Disassembly of section .text:

04000244 <_start>:

    /* Assume the data cache size is always a power of two. */
#if NIOS2_DCACHE_SIZE > 0x8000
    movhi r2, %hi(NIOS2_DCACHE_SIZE)
#else
    movui r2, NIOS2_DCACHE_SIZE
 4000244:	00820014 	movui	r2,2048
#endif

0:
    initd 0(r2)
 4000248:	10000033 	initd	0(r2)
#ifdef NIOS2_ECC_PRESENT
    addi r2, r2, -4
#else
    addi r2, r2, -NIOS2_DCACHE_LINE_SIZE
 400024c:	10bff804 	addi	r2,r2,-32
#endif
    bgt r2, zero, 0b
 4000250:	00bffd16 	blt	zero,r2,4000248 <__alt_data_end+0xfc000248>

    /*
     * Now that the caches are initialized, set up the stack pointer and global pointer.
     * The values provided by the linker are assumed to be correctly aligned.
     */
    movhi sp, %hi(__alt_stack_pointer)
 4000254:	06c20034 	movhi	sp,2048
    ori sp, sp, %lo(__alt_stack_pointer)
 4000258:	dec00014 	ori	sp,sp,0
    movhi gp, %hi(_gp)
 400025c:	068100b4 	movhi	gp,1026
    ori gp, gp, %lo(_gp)
 4000260:	d6a78f14 	ori	gp,gp,40508
 */
#ifndef ALT_SIM_OPTIMIZE
    /* Log that the BSS is about to be cleared. */
    ALT_LOG_PUTS(alt_log_msg_bss)

    movhi r2, %hi(__bss_start)
 4000264:	008100b4 	movhi	r2,1026
    ori r2, r2, %lo(__bss_start)
 4000268:	10a43414 	ori	r2,r2,37072

    movhi r3, %hi(__bss_end)
 400026c:	00c100b4 	movhi	r3,1026
    ori r3, r3, %lo(__bss_end)
 4000270:	18e4d014 	ori	r3,r3,37696

    beq r2, r3, 1f
 4000274:	10c00326 	beq	r2,r3,4000284 <_start+0x40>

0:
    stw zero, (r2)
 4000278:	10000015 	stw	zero,0(r2)
    addi r2, r2, 4
 400027c:	10800104 	addi	r2,r2,4
    bltu r2, r3, 0b
 4000280:	10fffd36 	bltu	r2,r3,4000278 <__alt_data_end+0xfc000278>
     * section aren't defined until alt_load() has been called).
     */
    mov   et, zero
#endif

    call alt_load
 4000284:	4017c5c0 	call	4017c5c <alt_load>

    /* Log that alt_main is about to be called. */
    ALT_LOG_PUTS(alt_log_msg_alt_main)

    /* Call the C entry point. It should never return. */
    call alt_main
 4000288:	4017df00 	call	4017df0 <alt_main>

0400028c <alt_after_alt_main>:

    /* Wait in infinite loop in case alt_main does return. */
alt_after_alt_main:
    br alt_after_alt_main
 400028c:	003fff06 	br	400028c <__alt_data_end+0xfc00028c>

04000290 <set_color_palette>:
#include "pixel_vga.h"

void set_color_palette(alt_u8 color, alt_u8 red, alt_u8 green, alt_u8 blue) {
 4000290:	defffa04 	addi	sp,sp,-24
 4000294:	df000515 	stw	fp,20(sp)
 4000298:	df000504 	addi	fp,sp,20
 400029c:	2011883a 	mov	r8,r4
 40002a0:	2809883a 	mov	r4,r5
 40002a4:	3007883a 	mov	r3,r6
 40002a8:	3805883a 	mov	r2,r7
 40002ac:	e23ffc05 	stb	r8,-16(fp)
 40002b0:	e13ffd05 	stb	r4,-12(fp)
 40002b4:	e0fffe05 	stb	r3,-8(fp)
 40002b8:	e0bfff05 	stb	r2,-4(fp)
	// Pointer to the beginning of VRAM
    volatile alt_u32* vram_32 = (alt_u32*) vga_ctrl->VRAM;
 40002bc:	d0bca517 	ldw	r2,-3436(gp)
 40002c0:	e0bffb15 	stw	r2,-20(fp)

    // Point to start of color palette
    vram_32 += PALETTE_OFFSET + (color/2);
 40002c4:	e0bffc03 	ldbu	r2,-16(fp)
 40002c8:	1004d07a 	srli	r2,r2,1
 40002cc:	10c03fcc 	andi	r3,r2,255
 40002d0:	00a58014 	movui	r2,38400
 40002d4:	1885883a 	add	r2,r3,r2
 40002d8:	1085883a 	add	r2,r2,r2
 40002dc:	1085883a 	add	r2,r2,r2
 40002e0:	1007883a 	mov	r3,r2
 40002e4:	e0bffb17 	ldw	r2,-20(fp)
 40002e8:	10c5883a 	add	r2,r2,r3
 40002ec:	e0bffb15 	stw	r2,-20(fp)

    // color 0
    if(color % 2 == 0)
 40002f0:	e0bffc03 	ldbu	r2,-16(fp)
 40002f4:	1080004c 	andi	r2,r2,1
 40002f8:	10803fcc 	andi	r2,r2,255
 40002fc:	10000a1e 	bne	r2,zero,4000328 <set_color_palette+0x98>
        *vram_32 = (((alt_u32)red) << 9) | (((alt_u32)green) << 5) | (((alt_u32)blue) << 1);
 4000300:	e0bffd03 	ldbu	r2,-12(fp)
 4000304:	1006927a 	slli	r3,r2,9
 4000308:	e0bffe03 	ldbu	r2,-8(fp)
 400030c:	1004917a 	slli	r2,r2,5
 4000310:	1886b03a 	or	r3,r3,r2
 4000314:	e0bfff03 	ldbu	r2,-4(fp)
 4000318:	1085883a 	add	r2,r2,r2
 400031c:	1886b03a 	or	r3,r3,r2
 4000320:	e0bffb17 	ldw	r2,-20(fp)
 4000324:	10c00015 	stw	r3,0(r2)

}
 4000328:	0001883a 	nop
 400032c:	e037883a 	mov	sp,fp
 4000330:	df000017 	ldw	fp,0(sp)
 4000334:	dec00104 	addi	sp,sp,4
 4000338:	f800283a 	ret

0400033c <init_color_palette>:

void init_color_palette() {
 400033c:	defffd04 	addi	sp,sp,-12
 4000340:	dfc00215 	stw	ra,8(sp)
 4000344:	df000115 	stw	fp,4(sp)
 4000348:	df000104 	addi	fp,sp,4
    // Initialize the color palette with the colors declared in the struct header
    for(alt_u8 i=0; i<16; i++) {
 400034c:	e03fff05 	stb	zero,-4(fp)
 4000350:	00002406 	br	40003e4 <init_color_palette+0xa8>
        set_color_palette(i, colors[i].red, colors[i].green, colors[i].blue);
 4000354:	e23fff03 	ldbu	r8,-4(fp)
 4000358:	e13fff03 	ldbu	r4,-4(fp)
 400035c:	00c100b4 	movhi	r3,1026
 4000360:	18c0cbc4 	addi	r3,r3,815
 4000364:	2005883a 	mov	r2,r4
 4000368:	1085883a 	add	r2,r2,r2
 400036c:	1105883a 	add	r2,r2,r4
 4000370:	1885883a 	add	r2,r3,r2
 4000374:	10800003 	ldbu	r2,0(r2)
 4000378:	11403fcc 	andi	r5,r2,255
 400037c:	e13fff03 	ldbu	r4,-4(fp)
 4000380:	00c100b4 	movhi	r3,1026
 4000384:	18c0cbc4 	addi	r3,r3,815
 4000388:	2005883a 	mov	r2,r4
 400038c:	1085883a 	add	r2,r2,r2
 4000390:	1105883a 	add	r2,r2,r4
 4000394:	1885883a 	add	r2,r3,r2
 4000398:	10800044 	addi	r2,r2,1
 400039c:	10800003 	ldbu	r2,0(r2)
 40003a0:	11803fcc 	andi	r6,r2,255
 40003a4:	e13fff03 	ldbu	r4,-4(fp)
 40003a8:	00c100b4 	movhi	r3,1026
 40003ac:	18c0cbc4 	addi	r3,r3,815
 40003b0:	2005883a 	mov	r2,r4
 40003b4:	1085883a 	add	r2,r2,r2
 40003b8:	1105883a 	add	r2,r2,r4
 40003bc:	1885883a 	add	r2,r3,r2
 40003c0:	10800084 	addi	r2,r2,2
 40003c4:	10800003 	ldbu	r2,0(r2)
 40003c8:	10803fcc 	andi	r2,r2,255
 40003cc:	100f883a 	mov	r7,r2
 40003d0:	4009883a 	mov	r4,r8
 40003d4:	40002900 	call	4000290 <set_color_palette>

}

void init_color_palette() {
    // Initialize the color palette with the colors declared in the struct header
    for(alt_u8 i=0; i<16; i++) {
 40003d8:	e0bfff03 	ldbu	r2,-4(fp)
 40003dc:	10800044 	addi	r2,r2,1
 40003e0:	e0bfff05 	stb	r2,-4(fp)
 40003e4:	e0bfff03 	ldbu	r2,-4(fp)
 40003e8:	10800430 	cmpltui	r2,r2,16
 40003ec:	103fd91e 	bne	r2,zero,4000354 <__alt_data_end+0xfc000354>
        set_color_palette(i, colors[i].red, colors[i].green, colors[i].blue);
    }
}
 40003f0:	0001883a 	nop
 40003f4:	e037883a 	mov	sp,fp
 40003f8:	dfc00117 	ldw	ra,4(sp)
 40003fc:	df000017 	ldw	fp,0(sp)
 4000400:	dec00204 	addi	sp,sp,8
 4000404:	f800283a 	ret

04000408 <draw_rectangle>:

void draw_rectangle(alt_u32 x, alt_u32 y, alt_u32 width, alt_u32 height, alt_u8 color){
 4000408:	defff504 	addi	sp,sp,-44
 400040c:	dfc00a15 	stw	ra,40(sp)
 4000410:	df000915 	stw	fp,36(sp)
 4000414:	df000904 	addi	fp,sp,36
 4000418:	e13ffb15 	stw	r4,-20(fp)
 400041c:	e17ffc15 	stw	r5,-16(fp)
 4000420:	e1bffd15 	stw	r6,-12(fp)
 4000424:	e1fffe15 	stw	r7,-8(fp)
 4000428:	e0800217 	ldw	r2,8(fp)
 400042c:	e0bfff05 	stb	r2,-4(fp)
    // Validate the arguments
    if (x%8 != 0 | width%8 != 0) {
 4000430:	e0bffb17 	ldw	r2,-20(fp)
 4000434:	108001cc 	andi	r2,r2,7
 4000438:	1004c03a 	cmpne	r2,r2,zero
 400043c:	1007883a 	mov	r3,r2
 4000440:	e0bffd17 	ldw	r2,-12(fp)
 4000444:	108001cc 	andi	r2,r2,7
 4000448:	1004c03a 	cmpne	r2,r2,zero
 400044c:	1884b03a 	or	r2,r3,r2
 4000450:	10803fcc 	andi	r2,r2,255
 4000454:	10000326 	beq	r2,zero,4000464 <draw_rectangle+0x5c>
        printf("Invalid arguments passed to draw_rectangle!\n");
 4000458:	010100b4 	movhi	r4,1026
 400045c:	21292904 	addi	r4,r4,-23388
 4000460:	400b8600 	call	400b860 <puts>
    }

    // Initialize the color
    alt_u32 word = 0;
 4000464:	e03ff715 	stw	zero,-36(fp)
    for(alt_u8 p=0; p<8; p++) word += (color << (p*4));
 4000468:	e03ff805 	stb	zero,-32(fp)
 400046c:	00000c06 	br	40004a0 <draw_rectangle+0x98>
 4000470:	e0ffff03 	ldbu	r3,-4(fp)
 4000474:	e0bff803 	ldbu	r2,-32(fp)
 4000478:	1085883a 	add	r2,r2,r2
 400047c:	1085883a 	add	r2,r2,r2
 4000480:	1884983a 	sll	r2,r3,r2
 4000484:	1007883a 	mov	r3,r2
 4000488:	e0bff717 	ldw	r2,-36(fp)
 400048c:	10c5883a 	add	r2,r2,r3
 4000490:	e0bff715 	stw	r2,-36(fp)
 4000494:	e0bff803 	ldbu	r2,-32(fp)
 4000498:	10800044 	addi	r2,r2,1
 400049c:	e0bff805 	stb	r2,-32(fp)
 40004a0:	e0bff803 	ldbu	r2,-32(fp)
 40004a4:	10800230 	cmpltui	r2,r2,8
 40004a8:	103ff11e 	bne	r2,zero,4000470 <__alt_data_end+0xfc000470>
    printf("Color: %x\n", word);
 40004ac:	e17ff717 	ldw	r5,-36(fp)
 40004b0:	010100b4 	movhi	r4,1026
 40004b4:	21293404 	addi	r4,r4,-23344
 40004b8:	400b7640 	call	400b764 <printf>

    // Iterate over the relevant words, set their color
    for(alt_u32 y_draw=y; y_draw<(y+height); y_draw++) {
 40004bc:	e0bffc17 	ldw	r2,-16(fp)
 40004c0:	e0bff915 	stw	r2,-28(fp)
 40004c4:	00001906 	br	400052c <draw_rectangle+0x124>
        for(alt_u32 x_draw=x; x_draw<(x+width); x_draw+=8) {
 40004c8:	e0bffb17 	ldw	r2,-20(fp)
 40004cc:	e0bffa15 	stw	r2,-24(fp)
 40004d0:	00000e06 	br	400050c <draw_rectangle+0x104>
            vga_ctrl->VRAM[(x_draw/8) + (y_draw*80)] = word;
 40004d4:	d0fca517 	ldw	r3,-3436(gp)
 40004d8:	e0bffa17 	ldw	r2,-24(fp)
 40004dc:	1008d0fa 	srli	r4,r2,3
 40004e0:	e0bff917 	ldw	r2,-28(fp)
 40004e4:	10801424 	muli	r2,r2,80
 40004e8:	2085883a 	add	r2,r4,r2
 40004ec:	1085883a 	add	r2,r2,r2
 40004f0:	1085883a 	add	r2,r2,r2
 40004f4:	1885883a 	add	r2,r3,r2
 40004f8:	e0fff717 	ldw	r3,-36(fp)
 40004fc:	10c00015 	stw	r3,0(r2)
    for(alt_u8 p=0; p<8; p++) word += (color << (p*4));
    printf("Color: %x\n", word);

    // Iterate over the relevant words, set their color
    for(alt_u32 y_draw=y; y_draw<(y+height); y_draw++) {
        for(alt_u32 x_draw=x; x_draw<(x+width); x_draw+=8) {
 4000500:	e0bffa17 	ldw	r2,-24(fp)
 4000504:	10800204 	addi	r2,r2,8
 4000508:	e0bffa15 	stw	r2,-24(fp)
 400050c:	e0fffb17 	ldw	r3,-20(fp)
 4000510:	e0bffd17 	ldw	r2,-12(fp)
 4000514:	1885883a 	add	r2,r3,r2
 4000518:	e0fffa17 	ldw	r3,-24(fp)
 400051c:	18bfed36 	bltu	r3,r2,40004d4 <__alt_data_end+0xfc0004d4>
    alt_u32 word = 0;
    for(alt_u8 p=0; p<8; p++) word += (color << (p*4));
    printf("Color: %x\n", word);

    // Iterate over the relevant words, set their color
    for(alt_u32 y_draw=y; y_draw<(y+height); y_draw++) {
 4000520:	e0bff917 	ldw	r2,-28(fp)
 4000524:	10800044 	addi	r2,r2,1
 4000528:	e0bff915 	stw	r2,-28(fp)
 400052c:	e0fffc17 	ldw	r3,-16(fp)
 4000530:	e0bffe17 	ldw	r2,-8(fp)
 4000534:	1885883a 	add	r2,r3,r2
 4000538:	e0fff917 	ldw	r3,-28(fp)
 400053c:	18bfe236 	bltu	r3,r2,40004c8 <__alt_data_end+0xfc0004c8>
        for(alt_u32 x_draw=x; x_draw<(x+width); x_draw+=8) {
            vga_ctrl->VRAM[(x_draw/8) + (y_draw*80)] = word;
        }
    }
}
 4000540:	0001883a 	nop
 4000544:	e037883a 	mov	sp,fp
 4000548:	dfc00117 	ldw	ra,4(sp)
 400054c:	df000017 	ldw	fp,0(sp)
 4000550:	dec00204 	addi	sp,sp,8
 4000554:	f800283a 	ret

04000558 <_ZN9DhcpClass13beginWithDHCPEPhmm>:
#include "Ethernet.h"
#include "utility/w5100.h"
#include "utility/IPAddress.h"

int DhcpClass::beginWithDHCP(uint8_t *mac, unsigned long timeout, unsigned long responseTimeout)
{
 4000558:	defffa04 	addi	sp,sp,-24
 400055c:	dfc00515 	stw	ra,20(sp)
 4000560:	df000415 	stw	fp,16(sp)
 4000564:	df000404 	addi	fp,sp,16
 4000568:	e13ffc15 	stw	r4,-16(fp)
 400056c:	e17ffd15 	stw	r5,-12(fp)
 4000570:	e1bffe15 	stw	r6,-8(fp)
 4000574:	e1ffff15 	stw	r7,-4(fp)
	_dhcpLeaseTime=0;
 4000578:	e0bffc17 	ldw	r2,-16(fp)
 400057c:	10000915 	stw	zero,36(r2)
	_dhcpT1=0;
 4000580:	e0bffc17 	ldw	r2,-16(fp)
 4000584:	10000a15 	stw	zero,40(r2)
	_dhcpT2=0;
 4000588:	e0bffc17 	ldw	r2,-16(fp)
 400058c:	10000b15 	stw	zero,44(r2)
	_timeout = timeout;
 4000590:	e0bffc17 	ldw	r2,-16(fp)
 4000594:	e0fffe17 	ldw	r3,-8(fp)
 4000598:	10c00e15 	stw	r3,56(r2)
	_responseTimeout = responseTimeout;
 400059c:	e0bffc17 	ldw	r2,-16(fp)
 40005a0:	e0ffff17 	ldw	r3,-4(fp)
 40005a4:	10c00f15 	stw	r3,60(r2)

	// zero out _dhcpMacAddr
	memset(_dhcpMacAddr, 0, 6);
 40005a8:	e0bffc17 	ldw	r2,-16(fp)
 40005ac:	10800204 	addi	r2,r2,8
 40005b0:	01800184 	movi	r6,6
 40005b4:	000b883a 	mov	r5,zero
 40005b8:	1009883a 	mov	r4,r2
 40005bc:	400b60c0 	call	400b60c <memset>
	reset_DHCP_lease();
 40005c0:	e13ffc17 	ldw	r4,-16(fp)
 40005c4:	40006040 	call	4000604 <_ZN9DhcpClass16reset_DHCP_leaseEv>

	memcpy((void*)_dhcpMacAddr, (void*)mac, 6);
 40005c8:	e0bffc17 	ldw	r2,-16(fp)
 40005cc:	10800204 	addi	r2,r2,8
 40005d0:	01800184 	movi	r6,6
 40005d4:	e17ffd17 	ldw	r5,-12(fp)
 40005d8:	1009883a 	mov	r4,r2
 40005dc:	400b4c40 	call	400b4c4 <memcpy>
	_dhcp_state = STATE_DHCP_START;
 40005e0:	e0bffc17 	ldw	r2,-16(fp)
 40005e4:	10001105 	stb	zero,68(r2)
	return request_DHCP_lease();
 40005e8:	e13ffc17 	ldw	r4,-16(fp)
 40005ec:	40006480 	call	4000648 <_ZN9DhcpClass18request_DHCP_leaseEv>
}
 40005f0:	e037883a 	mov	sp,fp
 40005f4:	dfc00117 	ldw	ra,4(sp)
 40005f8:	df000017 	ldw	fp,0(sp)
 40005fc:	dec00204 	addi	sp,sp,8
 4000600:	f800283a 	ret

04000604 <_ZN9DhcpClass16reset_DHCP_leaseEv>:

void DhcpClass::reset_DHCP_lease()
{
 4000604:	defffd04 	addi	sp,sp,-12
 4000608:	dfc00215 	stw	ra,8(sp)
 400060c:	df000115 	stw	fp,4(sp)
 4000610:	df000104 	addi	fp,sp,4
 4000614:	e13fff15 	stw	r4,-4(fp)
	// zero out _dhcpSubnetMask, _dhcpGatewayIp, _dhcpLocalIp, _dhcpDhcpServerIp, _dhcpDnsServerIp
	memset(_dhcpLocalIp, 0, 20);
 4000618:	e0bfff17 	ldw	r2,-4(fp)
 400061c:	10800384 	addi	r2,r2,14
 4000620:	01800504 	movi	r6,20
 4000624:	000b883a 	mov	r5,zero
 4000628:	1009883a 	mov	r4,r2
 400062c:	400b60c0 	call	400b60c <memset>
}
 4000630:	0001883a 	nop
 4000634:	e037883a 	mov	sp,fp
 4000638:	dfc00117 	ldw	ra,4(sp)
 400063c:	df000017 	ldw	fp,0(sp)
 4000640:	dec00204 	addi	sp,sp,8
 4000644:	f800283a 	ret

04000648 <_ZN9DhcpClass18request_DHCP_leaseEv>:

	//return:0 on error, 1 if request is sent and response is received
int DhcpClass::request_DHCP_lease()
{
 4000648:	defff804 	addi	sp,sp,-32
 400064c:	dfc00715 	stw	ra,28(sp)
 4000650:	df000615 	stw	fp,24(sp)
 4000654:	df000604 	addi	fp,sp,24
 4000658:	e13fff15 	stw	r4,-4(fp)
	uint8_t messageType = 0;
 400065c:	e03ffa05 	stb	zero,-24(fp)

	// Pick an initial transaction ID
	//_dhcpTransactionId = random(1UL, 2000UL);
	_dhcpTransactionId = 1500UL;
 4000660:	e0bfff17 	ldw	r2,-4(fp)
 4000664:	00c17704 	movi	r3,1500
 4000668:	10c00115 	stw	r3,4(r2)
	_dhcpInitialTransactionId = _dhcpTransactionId;
 400066c:	e0bfff17 	ldw	r2,-4(fp)
 4000670:	10c00117 	ldw	r3,4(r2)
 4000674:	e0bfff17 	ldw	r2,-4(fp)
 4000678:	10c00015 	stw	r3,0(r2)

	_dhcpUdpSocket.stop();
 400067c:	e0bfff17 	ldw	r2,-4(fp)
 4000680:	10801204 	addi	r2,r2,72
 4000684:	1009883a 	mov	r4,r2
 4000688:	4004e6c0 	call	4004e6c <_ZN11EthernetUDP4stopEv>
	if (_dhcpUdpSocket.begin(DHCP_CLIENT_PORT) == 0) {
 400068c:	e0bfff17 	ldw	r2,-4(fp)
 4000690:	10801204 	addi	r2,r2,72
 4000694:	01401104 	movi	r5,68
 4000698:	1009883a 	mov	r4,r2
 400069c:	4004d980 	call	4004d98 <_ZN11EthernetUDP5beginEt>
 40006a0:	10803fcc 	andi	r2,r2,255
 40006a4:	1005003a 	cmpeq	r2,r2,zero
 40006a8:	10803fcc 	andi	r2,r2,255
 40006ac:	10000226 	beq	r2,zero,40006b8 <_ZN9DhcpClass18request_DHCP_leaseEv+0x70>
		// Couldn't get a socket
		return 0;
 40006b0:	0005883a 	mov	r2,zero
 40006b4:	0000c106 	br	40009bc <_ZN9DhcpClass18request_DHCP_leaseEv+0x374>
	}

	presend_DHCP();
 40006b8:	e13fff17 	ldw	r4,-4(fp)
 40006bc:	40009d00 	call	40009d0 <_ZN9DhcpClass12presend_DHCPEv>

	int result = 0;
 40006c0:	e03ffb15 	stw	zero,-20(fp)

	unsigned long startTime = millis();
 40006c4:	40075380 	call	4007538 <_Z6millisv>
 40006c8:	e0bffc15 	stw	r2,-16(fp)

	while (_dhcp_state != STATE_DHCP_LEASED) {
 40006cc:	e0bfff17 	ldw	r2,-4(fp)
 40006d0:	10801103 	ldbu	r2,68(r2)
 40006d4:	10803fcc 	andi	r2,r2,255
 40006d8:	108000e0 	cmpeqi	r2,r2,3
 40006dc:	1000a91e 	bne	r2,zero,4000984 <_ZN9DhcpClass18request_DHCP_leaseEv+0x33c>
		if (_dhcp_state == STATE_DHCP_START) {
 40006e0:	e0bfff17 	ldw	r2,-4(fp)
 40006e4:	10801103 	ldbu	r2,68(r2)
 40006e8:	10803fcc 	andi	r2,r2,255
 40006ec:	1000151e 	bne	r2,zero,4000744 <_ZN9DhcpClass18request_DHCP_leaseEv+0xfc>
			_dhcpTransactionId++;
 40006f0:	e0bfff17 	ldw	r2,-4(fp)
 40006f4:	10800117 	ldw	r2,4(r2)
 40006f8:	10c00044 	addi	r3,r2,1
 40006fc:	e0bfff17 	ldw	r2,-4(fp)
 4000700:	10c00115 	stw	r3,4(r2)
			send_DHCP_MESSAGE(DHCP_DISCOVER, ((millis() - startTime) / 1000));
 4000704:	40075380 	call	4007538 <_Z6millisv>
 4000708:	1007883a 	mov	r3,r2
 400070c:	e0bffc17 	ldw	r2,-16(fp)
 4000710:	1885c83a 	sub	r2,r3,r2
 4000714:	0140fa04 	movi	r5,1000
 4000718:	1009883a 	mov	r4,r2
 400071c:	400a5d40 	call	400a5d4 <__udivsi3>
 4000720:	10bfffcc 	andi	r2,r2,65535
 4000724:	100d883a 	mov	r6,r2
 4000728:	01400044 	movi	r5,1
 400072c:	e13fff17 	ldw	r4,-4(fp)
 4000730:	40009f40 	call	40009f4 <_ZN9DhcpClass17send_DHCP_MESSAGEEht>
			_dhcp_state = STATE_DHCP_DISCOVER;
 4000734:	e0bfff17 	ldw	r2,-4(fp)
 4000738:	00c00044 	movi	r3,1
 400073c:	10c01105 	stb	r3,68(r2)
 4000740:	00007906 	br	4000928 <_ZN9DhcpClass18request_DHCP_leaseEv+0x2e0>
		} else if (_dhcp_state == STATE_DHCP_REREQUEST) {
 4000744:	e0bfff17 	ldw	r2,-4(fp)
 4000748:	10801103 	ldbu	r2,68(r2)
 400074c:	10803fcc 	andi	r2,r2,255
 4000750:	10800118 	cmpnei	r2,r2,4
 4000754:	1000151e 	bne	r2,zero,40007ac <_ZN9DhcpClass18request_DHCP_leaseEv+0x164>
			_dhcpTransactionId++;
 4000758:	e0bfff17 	ldw	r2,-4(fp)
 400075c:	10800117 	ldw	r2,4(r2)
 4000760:	10c00044 	addi	r3,r2,1
 4000764:	e0bfff17 	ldw	r2,-4(fp)
 4000768:	10c00115 	stw	r3,4(r2)
			send_DHCP_MESSAGE(DHCP_REQUEST, ((millis() - startTime)/1000));
 400076c:	40075380 	call	4007538 <_Z6millisv>
 4000770:	1007883a 	mov	r3,r2
 4000774:	e0bffc17 	ldw	r2,-16(fp)
 4000778:	1885c83a 	sub	r2,r3,r2
 400077c:	0140fa04 	movi	r5,1000
 4000780:	1009883a 	mov	r4,r2
 4000784:	400a5d40 	call	400a5d4 <__udivsi3>
 4000788:	10bfffcc 	andi	r2,r2,65535
 400078c:	100d883a 	mov	r6,r2
 4000790:	014000c4 	movi	r5,3
 4000794:	e13fff17 	ldw	r4,-4(fp)
 4000798:	40009f40 	call	40009f4 <_ZN9DhcpClass17send_DHCP_MESSAGEEht>
			_dhcp_state = STATE_DHCP_REQUEST;
 400079c:	e0bfff17 	ldw	r2,-4(fp)
 40007a0:	00c00084 	movi	r3,2
 40007a4:	10c01105 	stb	r3,68(r2)
 40007a8:	00005f06 	br	4000928 <_ZN9DhcpClass18request_DHCP_leaseEv+0x2e0>
		} else if (_dhcp_state == STATE_DHCP_DISCOVER) {
 40007ac:	e0bfff17 	ldw	r2,-4(fp)
 40007b0:	10801103 	ldbu	r2,68(r2)
 40007b4:	10803fcc 	andi	r2,r2,255
 40007b8:	10800058 	cmpnei	r2,r2,1
 40007bc:	10001e1e 	bne	r2,zero,4000838 <_ZN9DhcpClass18request_DHCP_leaseEv+0x1f0>
			uint32_t respId;
			messageType = parseDHCPResponse(_responseTimeout, respId);
 40007c0:	e0bfff17 	ldw	r2,-4(fp)
 40007c4:	10800f17 	ldw	r2,60(r2)
 40007c8:	e0fffd04 	addi	r3,fp,-12
 40007cc:	180d883a 	mov	r6,r3
 40007d0:	100b883a 	mov	r5,r2
 40007d4:	e13fff17 	ldw	r4,-4(fp)
 40007d8:	4000e440 	call	4000e44 <_ZN9DhcpClass17parseDHCPResponseEmRm>
 40007dc:	e0bffa05 	stb	r2,-24(fp)
			if (messageType == DHCP_OFFER) {
 40007e0:	e0bffa03 	ldbu	r2,-24(fp)
 40007e4:	10800098 	cmpnei	r2,r2,2
 40007e8:	10004f1e 	bne	r2,zero,4000928 <_ZN9DhcpClass18request_DHCP_leaseEv+0x2e0>
				// We'll use the transaction ID that the offer came with,
				// rather than the one we were up to
				_dhcpTransactionId = respId;
 40007ec:	e0fffd17 	ldw	r3,-12(fp)
 40007f0:	e0bfff17 	ldw	r2,-4(fp)
 40007f4:	10c00115 	stw	r3,4(r2)
				send_DHCP_MESSAGE(DHCP_REQUEST, ((millis() - startTime) / 1000));
 40007f8:	40075380 	call	4007538 <_Z6millisv>
 40007fc:	1007883a 	mov	r3,r2
 4000800:	e0bffc17 	ldw	r2,-16(fp)
 4000804:	1885c83a 	sub	r2,r3,r2
 4000808:	0140fa04 	movi	r5,1000
 400080c:	1009883a 	mov	r4,r2
 4000810:	400a5d40 	call	400a5d4 <__udivsi3>
 4000814:	10bfffcc 	andi	r2,r2,65535
 4000818:	100d883a 	mov	r6,r2
 400081c:	014000c4 	movi	r5,3
 4000820:	e13fff17 	ldw	r4,-4(fp)
 4000824:	40009f40 	call	40009f4 <_ZN9DhcpClass17send_DHCP_MESSAGEEht>
				_dhcp_state = STATE_DHCP_REQUEST;
 4000828:	e0bfff17 	ldw	r2,-4(fp)
 400082c:	00c00084 	movi	r3,2
 4000830:	10c01105 	stb	r3,68(r2)
 4000834:	00003c06 	br	4000928 <_ZN9DhcpClass18request_DHCP_leaseEv+0x2e0>
			}
		} else if (_dhcp_state == STATE_DHCP_REQUEST) {
 4000838:	e0bfff17 	ldw	r2,-4(fp)
 400083c:	10801103 	ldbu	r2,68(r2)
 4000840:	10803fcc 	andi	r2,r2,255
 4000844:	10800098 	cmpnei	r2,r2,2
 4000848:	1000371e 	bne	r2,zero,4000928 <_ZN9DhcpClass18request_DHCP_leaseEv+0x2e0>
			uint32_t respId;
			messageType = parseDHCPResponse(_responseTimeout, respId);
 400084c:	e0bfff17 	ldw	r2,-4(fp)
 4000850:	10800f17 	ldw	r2,60(r2)
 4000854:	e0fffe04 	addi	r3,fp,-8
 4000858:	180d883a 	mov	r6,r3
 400085c:	100b883a 	mov	r5,r2
 4000860:	e13fff17 	ldw	r4,-4(fp)
 4000864:	4000e440 	call	4000e44 <_ZN9DhcpClass17parseDHCPResponseEmRm>
 4000868:	e0bffa05 	stb	r2,-24(fp)
			if (messageType == DHCP_ACK) {
 400086c:	e0bffa03 	ldbu	r2,-24(fp)
 4000870:	10800158 	cmpnei	r2,r2,5
 4000874:	1000271e 	bne	r2,zero,4000914 <_ZN9DhcpClass18request_DHCP_leaseEv+0x2cc>
				_dhcp_state = STATE_DHCP_LEASED;
 4000878:	e0bfff17 	ldw	r2,-4(fp)
 400087c:	00c000c4 	movi	r3,3
 4000880:	10c01105 	stb	r3,68(r2)
				result = 1;
 4000884:	00800044 	movi	r2,1
 4000888:	e0bffb15 	stw	r2,-20(fp)
				//use default lease time if we didn't get it
				if (_dhcpLeaseTime == 0) {
 400088c:	e0bfff17 	ldw	r2,-4(fp)
 4000890:	10800917 	ldw	r2,36(r2)
 4000894:	1000031e 	bne	r2,zero,40008a4 <_ZN9DhcpClass18request_DHCP_leaseEv+0x25c>
					_dhcpLeaseTime = DEFAULT_LEASE;
 4000898:	e0bfff17 	ldw	r2,-4(fp)
 400089c:	00c0e104 	movi	r3,900
 40008a0:	10c00915 	stw	r3,36(r2)
				}
				// Calculate T1 & T2 if we didn't get it
				if (_dhcpT1 == 0) {
 40008a4:	e0bfff17 	ldw	r2,-4(fp)
 40008a8:	10800a17 	ldw	r2,40(r2)
 40008ac:	1000051e 	bne	r2,zero,40008c4 <_ZN9DhcpClass18request_DHCP_leaseEv+0x27c>
					// T1 should be 50% of _dhcpLeaseTime
					_dhcpT1 = _dhcpLeaseTime >> 1;
 40008b0:	e0bfff17 	ldw	r2,-4(fp)
 40008b4:	10800917 	ldw	r2,36(r2)
 40008b8:	1006d07a 	srli	r3,r2,1
 40008bc:	e0bfff17 	ldw	r2,-4(fp)
 40008c0:	10c00a15 	stw	r3,40(r2)
				}
				if (_dhcpT2 == 0) {
 40008c4:	e0bfff17 	ldw	r2,-4(fp)
 40008c8:	10800b17 	ldw	r2,44(r2)
 40008cc:	1000081e 	bne	r2,zero,40008f0 <_ZN9DhcpClass18request_DHCP_leaseEv+0x2a8>
					// T2 should be 87.5% (7/8ths) of _dhcpLeaseTime
					_dhcpT2 = _dhcpLeaseTime - (_dhcpLeaseTime >> 3);
 40008d0:	e0bfff17 	ldw	r2,-4(fp)
 40008d4:	10c00917 	ldw	r3,36(r2)
 40008d8:	e0bfff17 	ldw	r2,-4(fp)
 40008dc:	10800917 	ldw	r2,36(r2)
 40008e0:	1004d0fa 	srli	r2,r2,3
 40008e4:	1887c83a 	sub	r3,r3,r2
 40008e8:	e0bfff17 	ldw	r2,-4(fp)
 40008ec:	10c00b15 	stw	r3,44(r2)
				}
				_renewInSec = _dhcpT1;
 40008f0:	e0bfff17 	ldw	r2,-4(fp)
 40008f4:	10c00a17 	ldw	r3,40(r2)
 40008f8:	e0bfff17 	ldw	r2,-4(fp)
 40008fc:	10c00c15 	stw	r3,48(r2)
				_rebindInSec = _dhcpT2;
 4000900:	e0bfff17 	ldw	r2,-4(fp)
 4000904:	10c00b17 	ldw	r3,44(r2)
 4000908:	e0bfff17 	ldw	r2,-4(fp)
 400090c:	10c00d15 	stw	r3,52(r2)
 4000910:	00000506 	br	4000928 <_ZN9DhcpClass18request_DHCP_leaseEv+0x2e0>
			} else if (messageType == DHCP_NAK) {
 4000914:	e0bffa03 	ldbu	r2,-24(fp)
 4000918:	10800198 	cmpnei	r2,r2,6
 400091c:	1000021e 	bne	r2,zero,4000928 <_ZN9DhcpClass18request_DHCP_leaseEv+0x2e0>
				_dhcp_state = STATE_DHCP_START;
 4000920:	e0bfff17 	ldw	r2,-4(fp)
 4000924:	10001105 	stb	zero,68(r2)
			}
		}

		if (messageType == 255) {
 4000928:	e0bffa03 	ldbu	r2,-24(fp)
 400092c:	10803fd8 	cmpnei	r2,r2,255
 4000930:	1000031e 	bne	r2,zero,4000940 <_ZN9DhcpClass18request_DHCP_leaseEv+0x2f8>
			messageType = 0;
 4000934:	e03ffa05 	stb	zero,-24(fp)
			_dhcp_state = STATE_DHCP_START;
 4000938:	e0bfff17 	ldw	r2,-4(fp)
 400093c:	10001105 	stb	zero,68(r2)
		}

		if (result != 1 && ((millis() - startTime) > _timeout))
 4000940:	e0bffb17 	ldw	r2,-20(fp)
 4000944:	10800060 	cmpeqi	r2,r2,1
 4000948:	1000091e 	bne	r2,zero,4000970 <_ZN9DhcpClass18request_DHCP_leaseEv+0x328>
 400094c:	40075380 	call	4007538 <_Z6millisv>
 4000950:	1007883a 	mov	r3,r2
 4000954:	e0bffc17 	ldw	r2,-16(fp)
 4000958:	1885c83a 	sub	r2,r3,r2
 400095c:	e0ffff17 	ldw	r3,-4(fp)
 4000960:	18c00e17 	ldw	r3,56(r3)
 4000964:	1880022e 	bgeu	r3,r2,4000970 <_ZN9DhcpClass18request_DHCP_leaseEv+0x328>
 4000968:	00800044 	movi	r2,1
 400096c:	00000106 	br	4000974 <_ZN9DhcpClass18request_DHCP_leaseEv+0x32c>
 4000970:	0005883a 	mov	r2,zero
 4000974:	10803fcc 	andi	r2,r2,255
 4000978:	1000011e 	bne	r2,zero,4000980 <_ZN9DhcpClass18request_DHCP_leaseEv+0x338>

	int result = 0;

	unsigned long startTime = millis();

	while (_dhcp_state != STATE_DHCP_LEASED) {
 400097c:	003f5306 	br	40006cc <__alt_data_end+0xfc0006cc>
			messageType = 0;
			_dhcp_state = STATE_DHCP_START;
		}

		if (result != 1 && ((millis() - startTime) > _timeout))
			break;
 4000980:	0001883a 	nop
	}

	// We're done with the socket now
	_dhcpUdpSocket.stop();
 4000984:	e0bfff17 	ldw	r2,-4(fp)
 4000988:	10801204 	addi	r2,r2,72
 400098c:	1009883a 	mov	r4,r2
 4000990:	4004e6c0 	call	4004e6c <_ZN11EthernetUDP4stopEv>
	_dhcpTransactionId++;
 4000994:	e0bfff17 	ldw	r2,-4(fp)
 4000998:	10800117 	ldw	r2,4(r2)
 400099c:	10c00044 	addi	r3,r2,1
 40009a0:	e0bfff17 	ldw	r2,-4(fp)
 40009a4:	10c00115 	stw	r3,4(r2)

	_lastCheckLeaseMillis = millis();
 40009a8:	40075380 	call	4007538 <_Z6millisv>
 40009ac:	1007883a 	mov	r3,r2
 40009b0:	e0bfff17 	ldw	r2,-4(fp)
 40009b4:	10c01015 	stw	r3,64(r2)
	return result;
 40009b8:	e0bffb17 	ldw	r2,-20(fp)
}
 40009bc:	e037883a 	mov	sp,fp
 40009c0:	dfc00117 	ldw	ra,4(sp)
 40009c4:	df000017 	ldw	fp,0(sp)
 40009c8:	dec00204 	addi	sp,sp,8
 40009cc:	f800283a 	ret

040009d0 <_ZN9DhcpClass12presend_DHCPEv>:

void DhcpClass::presend_DHCP()
{
 40009d0:	defffe04 	addi	sp,sp,-8
 40009d4:	df000115 	stw	fp,4(sp)
 40009d8:	df000104 	addi	fp,sp,4
 40009dc:	e13fff15 	stw	r4,-4(fp)
}
 40009e0:	0001883a 	nop
 40009e4:	e037883a 	mov	sp,fp
 40009e8:	df000017 	ldw	fp,0(sp)
 40009ec:	dec00104 	addi	sp,sp,4
 40009f0:	f800283a 	ret

040009f4 <_ZN9DhcpClass17send_DHCP_MESSAGEEht>:

void DhcpClass::send_DHCP_MESSAGE(uint8_t messageType, uint16_t secondsElapsed)
{
 40009f4:	deffee04 	addi	sp,sp,-72
 40009f8:	dfc01115 	stw	ra,68(sp)
 40009fc:	df001015 	stw	fp,64(sp)
 4000a00:	df001004 	addi	fp,sp,64
 4000a04:	e13ffd15 	stw	r4,-12(fp)
 4000a08:	2807883a 	mov	r3,r5
 4000a0c:	3005883a 	mov	r2,r6
 4000a10:	e0fffe05 	stb	r3,-8(fp)
 4000a14:	e0bfff0d 	sth	r2,-4(fp)
	uint8_t buffer[32];
	memset(buffer, 0, 32);
 4000a18:	e0bff204 	addi	r2,fp,-56
 4000a1c:	01800804 	movi	r6,32
 4000a20:	000b883a 	mov	r5,zero
 4000a24:	1009883a 	mov	r4,r2
 4000a28:	400b60c0 	call	400b60c <memset>
	IPAddress dest_addr(255, 255, 255, 255); // Broadcast address
 4000a2c:	e0fffa04 	addi	r3,fp,-24
 4000a30:	00803fc4 	movi	r2,255
 4000a34:	d8800015 	stw	r2,0(sp)
 4000a38:	01c03fc4 	movi	r7,255
 4000a3c:	01803fc4 	movi	r6,255
 4000a40:	01403fc4 	movi	r5,255
 4000a44:	1809883a 	mov	r4,r3
 4000a48:	40071a80 	call	40071a8 <_ZN9IPAddressC1Ehhhh>

	if (_dhcpUdpSocket.beginPacket(dest_addr, DHCP_SERVER_PORT) == -1) {
 4000a4c:	e0bffd17 	ldw	r2,-12(fp)
 4000a50:	10801204 	addi	r2,r2,72
 4000a54:	018010c4 	movi	r6,67
 4000a58:	e17ffa17 	ldw	r5,-24(fp)
 4000a5c:	1009883a 	mov	r4,r2
 4000a60:	4004f900 	call	4004f90 <_ZN11EthernetUDP11beginPacketE9IPAddresst>
 4000a64:	10bfffe0 	cmpeqi	r2,r2,-1
 4000a68:	10803fcc 	andi	r2,r2,255
 4000a6c:	1000ef1e 	bne	r2,zero,4000e2c <_ZN9DhcpClass17send_DHCP_MESSAGEEht+0x438>
		//Serial.printf("DHCP transmit error\n");
		// FIXME Need to return errors
		return;
	}

	buffer[0] = DHCP_BOOTREQUEST;   // op
 4000a70:	00800044 	movi	r2,1
 4000a74:	e0bff205 	stb	r2,-56(fp)
	buffer[1] = DHCP_HTYPE10MB;     // htype
 4000a78:	00800044 	movi	r2,1
 4000a7c:	e0bff245 	stb	r2,-55(fp)
	buffer[2] = DHCP_HLENETHERNET;  // hlen
 4000a80:	00800184 	movi	r2,6
 4000a84:	e0bff285 	stb	r2,-54(fp)
	buffer[3] = DHCP_HOPS;          // hops
 4000a88:	e03ff2c5 	stb	zero,-53(fp)

	// xid
	unsigned long xid = htonl(_dhcpTransactionId);
 4000a8c:	e0bffd17 	ldw	r2,-12(fp)
 4000a90:	10800117 	ldw	r2,4(r2)
 4000a94:	1006963a 	slli	r3,r2,24
 4000a98:	e0bffd17 	ldw	r2,-12(fp)
 4000a9c:	10800117 	ldw	r2,4(r2)
 4000aa0:	1004923a 	slli	r2,r2,8
 4000aa4:	10803fec 	andhi	r2,r2,255
 4000aa8:	1886b03a 	or	r3,r3,r2
 4000aac:	e0bffd17 	ldw	r2,-12(fp)
 4000ab0:	10800117 	ldw	r2,4(r2)
 4000ab4:	1004d23a 	srli	r2,r2,8
 4000ab8:	10bfc00c 	andi	r2,r2,65280
 4000abc:	1886b03a 	or	r3,r3,r2
 4000ac0:	e0bffd17 	ldw	r2,-12(fp)
 4000ac4:	10800117 	ldw	r2,4(r2)
 4000ac8:	1004d63a 	srli	r2,r2,24
 4000acc:	1884b03a 	or	r2,r3,r2
 4000ad0:	e0bffb15 	stw	r2,-20(fp)
	memcpy(buffer + 4, &(xid), 4);
 4000ad4:	e0bff204 	addi	r2,fp,-56
 4000ad8:	10800104 	addi	r2,r2,4
 4000adc:	e0fffb04 	addi	r3,fp,-20
 4000ae0:	01800104 	movi	r6,4
 4000ae4:	180b883a 	mov	r5,r3
 4000ae8:	1009883a 	mov	r4,r2
 4000aec:	400b4c40 	call	400b4c4 <memcpy>

	// 8, 9 - seconds elapsed
	buffer[8] = ((secondsElapsed & 0xff00) >> 8);
 4000af0:	e0bfff0b 	ldhu	r2,-4(fp)
 4000af4:	1004d23a 	srli	r2,r2,8
 4000af8:	e0bff405 	stb	r2,-48(fp)
	buffer[9] = (secondsElapsed & 0x00ff);
 4000afc:	e0bfff0b 	ldhu	r2,-4(fp)
 4000b00:	e0bff445 	stb	r2,-47(fp)

	// flags
	unsigned short flags = htons(DHCP_FLAGSBROADCAST);
 4000b04:	00802004 	movi	r2,128
 4000b08:	e0bffc0d 	sth	r2,-16(fp)
	memcpy(buffer + 10, &(flags), 2);
 4000b0c:	e0bff204 	addi	r2,fp,-56
 4000b10:	10800284 	addi	r2,r2,10
 4000b14:	e0fffc04 	addi	r3,fp,-16
 4000b18:	01800084 	movi	r6,2
 4000b1c:	180b883a 	mov	r5,r3
 4000b20:	1009883a 	mov	r4,r2
 4000b24:	400b4c40 	call	400b4c4 <memcpy>
	// yiaddr: already zeroed
	// siaddr: already zeroed
	// giaddr: already zeroed

	//put data in W5100 transmit buffer
	_dhcpUdpSocket.write(buffer, 28);
 4000b28:	e0bffd17 	ldw	r2,-12(fp)
 4000b2c:	10801204 	addi	r2,r2,72
 4000b30:	e0fff204 	addi	r3,fp,-56
 4000b34:	01800704 	movi	r6,28
 4000b38:	180b883a 	mov	r5,r3
 4000b3c:	1009883a 	mov	r4,r2
 4000b40:	400507c0 	call	400507c <_ZN11EthernetUDP5writeEPKhj>

	memset(buffer, 0, 32); // clear local buffer
 4000b44:	e0bff204 	addi	r2,fp,-56
 4000b48:	01800804 	movi	r6,32
 4000b4c:	000b883a 	mov	r5,zero
 4000b50:	1009883a 	mov	r4,r2
 4000b54:	400b60c0 	call	400b60c <memset>

	memcpy(buffer, _dhcpMacAddr, 6); // chaddr
 4000b58:	e0bffd17 	ldw	r2,-12(fp)
 4000b5c:	10c00204 	addi	r3,r2,8
 4000b60:	e0bff204 	addi	r2,fp,-56
 4000b64:	01800184 	movi	r6,6
 4000b68:	180b883a 	mov	r5,r3
 4000b6c:	1009883a 	mov	r4,r2
 4000b70:	400b4c40 	call	400b4c4 <memcpy>

	//put data in W5100 transmit buffer
	_dhcpUdpSocket.write(buffer, 16);
 4000b74:	e0bffd17 	ldw	r2,-12(fp)
 4000b78:	10801204 	addi	r2,r2,72
 4000b7c:	e0fff204 	addi	r3,fp,-56
 4000b80:	01800404 	movi	r6,16
 4000b84:	180b883a 	mov	r5,r3
 4000b88:	1009883a 	mov	r4,r2
 4000b8c:	400507c0 	call	400507c <_ZN11EthernetUDP5writeEPKhj>

	memset(buffer, 0, 32); // clear local buffer
 4000b90:	e0bff204 	addi	r2,fp,-56
 4000b94:	01800804 	movi	r6,32
 4000b98:	000b883a 	mov	r5,zero
 4000b9c:	1009883a 	mov	r4,r2
 4000ba0:	400b60c0 	call	400b60c <memset>

	// leave zeroed out for sname && file
	// put in W5100 transmit buffer x 6 (192 bytes)

	for(int i = 0; i < 6; i++) {
 4000ba4:	e03ff115 	stw	zero,-60(fp)
 4000ba8:	e0bff117 	ldw	r2,-60(fp)
 4000bac:	10800188 	cmpgei	r2,r2,6
 4000bb0:	10000b1e 	bne	r2,zero,4000be0 <_ZN9DhcpClass17send_DHCP_MESSAGEEht+0x1ec>
		_dhcpUdpSocket.write(buffer, 32);
 4000bb4:	e0bffd17 	ldw	r2,-12(fp)
 4000bb8:	10801204 	addi	r2,r2,72
 4000bbc:	e0fff204 	addi	r3,fp,-56
 4000bc0:	01800804 	movi	r6,32
 4000bc4:	180b883a 	mov	r5,r3
 4000bc8:	1009883a 	mov	r4,r2
 4000bcc:	400507c0 	call	400507c <_ZN11EthernetUDP5writeEPKhj>
	memset(buffer, 0, 32); // clear local buffer

	// leave zeroed out for sname && file
	// put in W5100 transmit buffer x 6 (192 bytes)

	for(int i = 0; i < 6; i++) {
 4000bd0:	e0bff117 	ldw	r2,-60(fp)
 4000bd4:	10800044 	addi	r2,r2,1
 4000bd8:	e0bff115 	stw	r2,-60(fp)
 4000bdc:	003ff206 	br	4000ba8 <__alt_data_end+0xfc000ba8>
		_dhcpUdpSocket.write(buffer, 32);
	}

	// OPT - Magic Cookie
	buffer[0] = (uint8_t)((MAGIC_COOKIE >> 24)& 0xFF);
 4000be0:	008018c4 	movi	r2,99
 4000be4:	e0bff205 	stb	r2,-56(fp)
	buffer[1] = (uint8_t)((MAGIC_COOKIE >> 16)& 0xFF);
 4000be8:	00bfe084 	movi	r2,-126
 4000bec:	e0bff245 	stb	r2,-55(fp)
	buffer[2] = (uint8_t)((MAGIC_COOKIE >> 8)& 0xFF);
 4000bf0:	008014c4 	movi	r2,83
 4000bf4:	e0bff285 	stb	r2,-54(fp)
	buffer[3] = (uint8_t)(MAGIC_COOKIE& 0xFF);
 4000bf8:	008018c4 	movi	r2,99
 4000bfc:	e0bff2c5 	stb	r2,-53(fp)

	// OPT - message type
	buffer[4] = dhcpMessageType;
 4000c00:	00800d44 	movi	r2,53
 4000c04:	e0bff305 	stb	r2,-52(fp)
	buffer[5] = 0x01;
 4000c08:	00800044 	movi	r2,1
 4000c0c:	e0bff345 	stb	r2,-51(fp)
	buffer[6] = messageType; //DHCP_REQUEST;
 4000c10:	e0bffe03 	ldbu	r2,-8(fp)
 4000c14:	e0bff385 	stb	r2,-50(fp)

	// OPT - client identifier
	buffer[7] = dhcpClientIdentifier;
 4000c18:	00800f44 	movi	r2,61
 4000c1c:	e0bff3c5 	stb	r2,-49(fp)
	buffer[8] = 0x07;
 4000c20:	008001c4 	movi	r2,7
 4000c24:	e0bff405 	stb	r2,-48(fp)
	buffer[9] = 0x01;
 4000c28:	00800044 	movi	r2,1
 4000c2c:	e0bff445 	stb	r2,-47(fp)
	memcpy(buffer + 10, _dhcpMacAddr, 6);
 4000c30:	e0bff204 	addi	r2,fp,-56
 4000c34:	10800284 	addi	r2,r2,10
 4000c38:	e0fffd17 	ldw	r3,-12(fp)
 4000c3c:	18c00204 	addi	r3,r3,8
 4000c40:	01800184 	movi	r6,6
 4000c44:	180b883a 	mov	r5,r3
 4000c48:	1009883a 	mov	r4,r2
 4000c4c:	400b4c40 	call	400b4c4 <memcpy>

	// OPT - host name
	buffer[16] = hostName;
 4000c50:	00800304 	movi	r2,12
 4000c54:	e0bff605 	stb	r2,-40(fp)
	buffer[17] = strlen(HOST_NAME) + 6; // length of hostname + last 3 bytes of mac address
 4000c58:	00800304 	movi	r2,12
 4000c5c:	e0bff645 	stb	r2,-39(fp)
	strcpy((char*)&(buffer[18]), HOST_NAME);
 4000c60:	e0bff204 	addi	r2,fp,-56
 4000c64:	10800484 	addi	r2,r2,18
 4000c68:	00d255c4 	movi	r3,18775
 4000c6c:	10c0000d 	sth	r3,0(r2)
 4000c70:	00db9684 	movi	r3,28250
 4000c74:	10c0008d 	sth	r3,2(r2)
 4000c78:	00dd1944 	movi	r3,29797
 4000c7c:	10c0010d 	sth	r3,4(r2)
 4000c80:	10000185 	stb	zero,6(r2)

	printByte((char*)&(buffer[24]), _dhcpMacAddr[3]);
 4000c84:	e0bffd17 	ldw	r2,-12(fp)
 4000c88:	108002c3 	ldbu	r2,11(r2)
 4000c8c:	10c03fcc 	andi	r3,r2,255
 4000c90:	e0bff204 	addi	r2,fp,-56
 4000c94:	10800604 	addi	r2,r2,24
 4000c98:	180d883a 	mov	r6,r3
 4000c9c:	100b883a 	mov	r5,r2
 4000ca0:	e13ffd17 	ldw	r4,-12(fp)
 4000ca4:	40018e00 	call	40018e0 <_ZN9DhcpClass9printByteEPch>
	printByte((char*)&(buffer[26]), _dhcpMacAddr[4]);
 4000ca8:	e0bffd17 	ldw	r2,-12(fp)
 4000cac:	10800303 	ldbu	r2,12(r2)
 4000cb0:	10c03fcc 	andi	r3,r2,255
 4000cb4:	e0bff204 	addi	r2,fp,-56
 4000cb8:	10800684 	addi	r2,r2,26
 4000cbc:	180d883a 	mov	r6,r3
 4000cc0:	100b883a 	mov	r5,r2
 4000cc4:	e13ffd17 	ldw	r4,-12(fp)
 4000cc8:	40018e00 	call	40018e0 <_ZN9DhcpClass9printByteEPch>
	printByte((char*)&(buffer[28]), _dhcpMacAddr[5]);
 4000ccc:	e0bffd17 	ldw	r2,-12(fp)
 4000cd0:	10800343 	ldbu	r2,13(r2)
 4000cd4:	10c03fcc 	andi	r3,r2,255
 4000cd8:	e0bff204 	addi	r2,fp,-56
 4000cdc:	10800704 	addi	r2,r2,28
 4000ce0:	180d883a 	mov	r6,r3
 4000ce4:	100b883a 	mov	r5,r2
 4000ce8:	e13ffd17 	ldw	r4,-12(fp)
 4000cec:	40018e00 	call	40018e0 <_ZN9DhcpClass9printByteEPch>

	//put data in W5100 transmit buffer
	_dhcpUdpSocket.write(buffer, 30);
 4000cf0:	e0bffd17 	ldw	r2,-12(fp)
 4000cf4:	10801204 	addi	r2,r2,72
 4000cf8:	e0fff204 	addi	r3,fp,-56
 4000cfc:	01800784 	movi	r6,30
 4000d00:	180b883a 	mov	r5,r3
 4000d04:	1009883a 	mov	r4,r2
 4000d08:	400507c0 	call	400507c <_ZN11EthernetUDP5writeEPKhj>

	if (messageType == DHCP_REQUEST) {
 4000d0c:	e0bffe03 	ldbu	r2,-8(fp)
 4000d10:	108000d8 	cmpnei	r2,r2,3
 4000d14:	1000271e 	bne	r2,zero,4000db4 <_ZN9DhcpClass17send_DHCP_MESSAGEEht+0x3c0>
		buffer[0] = dhcpRequestedIPaddr;
 4000d18:	00800c84 	movi	r2,50
 4000d1c:	e0bff205 	stb	r2,-56(fp)
		buffer[1] = 0x04;
 4000d20:	00800104 	movi	r2,4
 4000d24:	e0bff245 	stb	r2,-55(fp)
		buffer[2] = _dhcpLocalIp[0];
 4000d28:	e0bffd17 	ldw	r2,-12(fp)
 4000d2c:	10800383 	ldbu	r2,14(r2)
 4000d30:	e0bff285 	stb	r2,-54(fp)
		buffer[3] = _dhcpLocalIp[1];
 4000d34:	e0bffd17 	ldw	r2,-12(fp)
 4000d38:	108003c3 	ldbu	r2,15(r2)
 4000d3c:	e0bff2c5 	stb	r2,-53(fp)
		buffer[4] = _dhcpLocalIp[2];
 4000d40:	e0bffd17 	ldw	r2,-12(fp)
 4000d44:	10800403 	ldbu	r2,16(r2)
 4000d48:	e0bff305 	stb	r2,-52(fp)
		buffer[5] = _dhcpLocalIp[3];
 4000d4c:	e0bffd17 	ldw	r2,-12(fp)
 4000d50:	10800443 	ldbu	r2,17(r2)
 4000d54:	e0bff345 	stb	r2,-51(fp)

		buffer[6] = dhcpServerIdentifier;
 4000d58:	00800d84 	movi	r2,54
 4000d5c:	e0bff385 	stb	r2,-50(fp)
		buffer[7] = 0x04;
 4000d60:	00800104 	movi	r2,4
 4000d64:	e0bff3c5 	stb	r2,-49(fp)
		buffer[8] = _dhcpDhcpServerIp[0];
 4000d68:	e0bffd17 	ldw	r2,-12(fp)
 4000d6c:	10800683 	ldbu	r2,26(r2)
 4000d70:	e0bff405 	stb	r2,-48(fp)
		buffer[9] = _dhcpDhcpServerIp[1];
 4000d74:	e0bffd17 	ldw	r2,-12(fp)
 4000d78:	108006c3 	ldbu	r2,27(r2)
 4000d7c:	e0bff445 	stb	r2,-47(fp)
		buffer[10] = _dhcpDhcpServerIp[2];
 4000d80:	e0bffd17 	ldw	r2,-12(fp)
 4000d84:	10800703 	ldbu	r2,28(r2)
 4000d88:	e0bff485 	stb	r2,-46(fp)
		buffer[11] = _dhcpDhcpServerIp[3];
 4000d8c:	e0bffd17 	ldw	r2,-12(fp)
 4000d90:	10800743 	ldbu	r2,29(r2)
 4000d94:	e0bff4c5 	stb	r2,-45(fp)

		//put data in W5100 transmit buffer
		_dhcpUdpSocket.write(buffer, 12);
 4000d98:	e0bffd17 	ldw	r2,-12(fp)
 4000d9c:	10801204 	addi	r2,r2,72
 4000da0:	e0fff204 	addi	r3,fp,-56
 4000da4:	01800304 	movi	r6,12
 4000da8:	180b883a 	mov	r5,r3
 4000dac:	1009883a 	mov	r4,r2
 4000db0:	400507c0 	call	400507c <_ZN11EthernetUDP5writeEPKhj>
	}

	buffer[0] = dhcpParamRequest;
 4000db4:	00800dc4 	movi	r2,55
 4000db8:	e0bff205 	stb	r2,-56(fp)
	buffer[1] = 0x06;
 4000dbc:	00800184 	movi	r2,6
 4000dc0:	e0bff245 	stb	r2,-55(fp)
	buffer[2] = subnetMask;
 4000dc4:	00800044 	movi	r2,1
 4000dc8:	e0bff285 	stb	r2,-54(fp)
	buffer[3] = routersOnSubnet;
 4000dcc:	008000c4 	movi	r2,3
 4000dd0:	e0bff2c5 	stb	r2,-53(fp)
	buffer[4] = dns;
 4000dd4:	00800184 	movi	r2,6
 4000dd8:	e0bff305 	stb	r2,-52(fp)
	buffer[5] = domainName;
 4000ddc:	008003c4 	movi	r2,15
 4000de0:	e0bff345 	stb	r2,-51(fp)
	buffer[6] = dhcpT1value;
 4000de4:	00800e84 	movi	r2,58
 4000de8:	e0bff385 	stb	r2,-50(fp)
	buffer[7] = dhcpT2value;
 4000dec:	00800ec4 	movi	r2,59
 4000df0:	e0bff3c5 	stb	r2,-49(fp)
	buffer[8] = endOption;
 4000df4:	00bfffc4 	movi	r2,-1
 4000df8:	e0bff405 	stb	r2,-48(fp)

	//put data in W5100 transmit buffer
	_dhcpUdpSocket.write(buffer, 9);
 4000dfc:	e0bffd17 	ldw	r2,-12(fp)
 4000e00:	10801204 	addi	r2,r2,72
 4000e04:	e0fff204 	addi	r3,fp,-56
 4000e08:	01800244 	movi	r6,9
 4000e0c:	180b883a 	mov	r5,r3
 4000e10:	1009883a 	mov	r4,r2
 4000e14:	400507c0 	call	400507c <_ZN11EthernetUDP5writeEPKhj>

	_dhcpUdpSocket.endPacket();
 4000e18:	e0bffd17 	ldw	r2,-12(fp)
 4000e1c:	10801204 	addi	r2,r2,72
 4000e20:	1009883a 	mov	r4,r2
 4000e24:	40050100 	call	4005010 <_ZN11EthernetUDP9endPacketEv>
 4000e28:	00000106 	br	4000e30 <_ZN9DhcpClass17send_DHCP_MESSAGEEht+0x43c>
	IPAddress dest_addr(255, 255, 255, 255); // Broadcast address

	if (_dhcpUdpSocket.beginPacket(dest_addr, DHCP_SERVER_PORT) == -1) {
		//Serial.printf("DHCP transmit error\n");
		// FIXME Need to return errors
		return;
 4000e2c:	0001883a 	nop

	//put data in W5100 transmit buffer
	_dhcpUdpSocket.write(buffer, 9);

	_dhcpUdpSocket.endPacket();
}
 4000e30:	e037883a 	mov	sp,fp
 4000e34:	dfc00117 	ldw	ra,4(sp)
 4000e38:	df000017 	ldw	fp,0(sp)
 4000e3c:	dec00204 	addi	sp,sp,8
 4000e40:	f800283a 	ret

04000e44 <_ZN9DhcpClass17parseDHCPResponseEmRm>:

uint8_t DhcpClass::parseDHCPResponse(unsigned long responseTimeout, uint32_t& transactionId)
{
 4000e44:	deffd604 	addi	sp,sp,-168
 4000e48:	dfc02915 	stw	ra,164(sp)
 4000e4c:	df002815 	stw	fp,160(sp)
 4000e50:	ddc02715 	stw	r23,156(sp)
 4000e54:	dd802615 	stw	r22,152(sp)
 4000e58:	dd402515 	stw	r21,148(sp)
 4000e5c:	dd002415 	stw	r20,144(sp)
 4000e60:	dcc02315 	stw	r19,140(sp)
 4000e64:	dc802215 	stw	r18,136(sp)
 4000e68:	dc402115 	stw	r17,132(sp)
 4000e6c:	dc002015 	stw	r16,128(sp)
 4000e70:	df002804 	addi	fp,sp,160
 4000e74:	e13fe715 	stw	r4,-100(fp)
 4000e78:	e17fe815 	stw	r5,-96(fp)
 4000e7c:	e1bfe915 	stw	r6,-92(fp)
 4000e80:	00810074 	movhi	r2,1025
 4000e84:	10a45304 	addi	r2,r2,-28340
 4000e88:	e0bff015 	stw	r2,-64(fp)
 4000e8c:	008100b4 	movhi	r2,1026
 4000e90:	10a90b04 	addi	r2,r2,-23508
 4000e94:	e0bff115 	stw	r2,-60(fp)
 4000e98:	e0bff204 	addi	r2,fp,-56
 4000e9c:	e0ffd804 	addi	r3,fp,-160
 4000ea0:	10c00015 	stw	r3,0(r2)
 4000ea4:	00c10034 	movhi	r3,1024
 4000ea8:	18c56c04 	addi	r3,r3,5552
 4000eac:	10c00115 	stw	r3,4(r2)
 4000eb0:	16c00215 	stw	sp,8(r2)
 4000eb4:	e0bfea04 	addi	r2,fp,-88
 4000eb8:	1009883a 	mov	r4,r2
 4000ebc:	400a8980 	call	400a898 <_Unwind_SjLj_Register>
	uint8_t type = 0;
 4000ec0:	e03fd805 	stb	zero,-160(fp)
	uint8_t opt_len = 0;
 4000ec4:	e03fd845 	stb	zero,-159(fp)

	unsigned long startTime = millis();
 4000ec8:	00bfffc4 	movi	r2,-1
 4000ecc:	e0bfeb15 	stw	r2,-84(fp)
 4000ed0:	40075380 	call	4007538 <_Z6millisv>
 4000ed4:	e0bfd915 	stw	r2,-156(fp)

	while (_dhcpUdpSocket.parsePacket() <= 0) {
 4000ed8:	e0bfe717 	ldw	r2,-100(fp)
 4000edc:	10c01204 	addi	r3,r2,72
 4000ee0:	00bfffc4 	movi	r2,-1
 4000ee4:	e0bfeb15 	stw	r2,-84(fp)
 4000ee8:	1809883a 	mov	r4,r3
 4000eec:	40051040 	call	4005104 <_ZN11EthernetUDP11parsePacketEv>
 4000ef0:	0084403a 	cmpge	r2,zero,r2
 4000ef4:	10803fcc 	andi	r2,r2,255
 4000ef8:	10000f26 	beq	r2,zero,4000f38 <_ZN9DhcpClass17parseDHCPResponseEmRm+0xf4>
		if ((millis() - startTime) > responseTimeout) {
 4000efc:	40075380 	call	4007538 <_Z6millisv>
 4000f00:	1007883a 	mov	r3,r2
 4000f04:	e0bfd917 	ldw	r2,-156(fp)
 4000f08:	1885c83a 	sub	r2,r3,r2
 4000f0c:	e0ffe817 	ldw	r3,-96(fp)
 4000f10:	1885803a 	cmpltu	r2,r3,r2
 4000f14:	10803fcc 	andi	r2,r2,255
 4000f18:	10000226 	beq	r2,zero,4000f24 <_ZN9DhcpClass17parseDHCPResponseEmRm+0xe0>
			return 255;
 4000f1c:	00bfffc4 	movi	r2,-1
 4000f20:	0001a106 	br	40015a8 <_ZN9DhcpClass17parseDHCPResponseEmRm+0x764>
		}
		delay(50);
 4000f24:	00bfffc4 	movi	r2,-1
 4000f28:	e0bfeb15 	stw	r2,-84(fp)
 4000f2c:	01000c84 	movi	r4,50
 4000f30:	40074fc0 	call	40074fc <_Z5delayj>
	uint8_t type = 0;
	uint8_t opt_len = 0;

	unsigned long startTime = millis();

	while (_dhcpUdpSocket.parsePacket() <= 0) {
 4000f34:	003fe806 	br	4000ed8 <__alt_data_end+0xfc000ed8>
		}
		delay(50);
	}
	// start reading in the packet
	RIP_MSG_FIXED fixedMsg;
	_dhcpUdpSocket.read((uint8_t*)&fixedMsg, sizeof(RIP_MSG_FIXED));
 4000f38:	e0bfe717 	ldw	r2,-100(fp)
 4000f3c:	10c01204 	addi	r3,r2,72
 4000f40:	e13fde04 	addi	r4,fp,-136
 4000f44:	00bfffc4 	movi	r2,-1
 4000f48:	e0bfeb15 	stw	r2,-84(fp)
 4000f4c:	01800904 	movi	r6,36
 4000f50:	200b883a 	mov	r5,r4
 4000f54:	1809883a 	mov	r4,r3
 4000f58:	40052cc0 	call	40052cc <_ZN11EthernetUDP4readEPhj>

	if (fixedMsg.op == DHCP_BOOTREPLY && _dhcpUdpSocket.remotePort() == DHCP_SERVER_PORT) {
 4000f5c:	e0bfde03 	ldbu	r2,-136(fp)
 4000f60:	10803fcc 	andi	r2,r2,255
 4000f64:	10800098 	cmpnei	r2,r2,2
 4000f68:	1000091e 	bne	r2,zero,4000f90 <_ZN9DhcpClass17parseDHCPResponseEmRm+0x14c>
 4000f6c:	e0bfe717 	ldw	r2,-100(fp)
 4000f70:	10801204 	addi	r2,r2,72
 4000f74:	1009883a 	mov	r4,r2
 4000f78:	4001a800 	call	4001a80 <_ZN11EthernetUDP10remotePortEv>
 4000f7c:	10bfffcc 	andi	r2,r2,65535
 4000f80:	108010d8 	cmpnei	r2,r2,67
 4000f84:	1000021e 	bne	r2,zero,4000f90 <_ZN9DhcpClass17parseDHCPResponseEmRm+0x14c>
 4000f88:	00800044 	movi	r2,1
 4000f8c:	00000106 	br	4000f94 <_ZN9DhcpClass17parseDHCPResponseEmRm+0x150>
 4000f90:	0005883a 	mov	r2,zero
 4000f94:	10803fcc 	andi	r2,r2,255
 4000f98:	10017c26 	beq	r2,zero,400158c <_ZN9DhcpClass17parseDHCPResponseEmRm+0x748>
		transactionId = ntohl(fixedMsg.xid);
 4000f9c:	e0bfdf17 	ldw	r2,-132(fp)
 4000fa0:	1006963a 	slli	r3,r2,24
 4000fa4:	e0bfdf17 	ldw	r2,-132(fp)
 4000fa8:	1004923a 	slli	r2,r2,8
 4000fac:	10803fec 	andhi	r2,r2,255
 4000fb0:	1886b03a 	or	r3,r3,r2
 4000fb4:	e0bfdf17 	ldw	r2,-132(fp)
 4000fb8:	1004d23a 	srli	r2,r2,8
 4000fbc:	10bfc00c 	andi	r2,r2,65280
 4000fc0:	1886b03a 	or	r3,r3,r2
 4000fc4:	e0bfdf17 	ldw	r2,-132(fp)
 4000fc8:	1004d63a 	srli	r2,r2,24
 4000fcc:	1886b03a 	or	r3,r3,r2
 4000fd0:	e0bfe917 	ldw	r2,-92(fp)
 4000fd4:	10c00015 	stw	r3,0(r2)
		if (memcmp(fixedMsg.chaddr, _dhcpMacAddr, 6) != 0 ||
 4000fd8:	e0bfe717 	ldw	r2,-100(fp)
 4000fdc:	10c00204 	addi	r3,r2,8
 4000fe0:	e0bfde04 	addi	r2,fp,-136
 4000fe4:	10800704 	addi	r2,r2,28
 4000fe8:	01800184 	movi	r6,6
 4000fec:	180b883a 	mov	r5,r3
 4000ff0:	1009883a 	mov	r4,r2
 4000ff4:	400b4480 	call	400b448 <memcmp>
 4000ff8:	10000a1e 	bne	r2,zero,4001024 <_ZN9DhcpClass17parseDHCPResponseEmRm+0x1e0>
		  (transactionId < _dhcpInitialTransactionId) ||
 4000ffc:	e0bfe917 	ldw	r2,-92(fp)
 4001000:	10c00017 	ldw	r3,0(r2)
 4001004:	e0bfe717 	ldw	r2,-100(fp)
 4001008:	10800017 	ldw	r2,0(r2)
	RIP_MSG_FIXED fixedMsg;
	_dhcpUdpSocket.read((uint8_t*)&fixedMsg, sizeof(RIP_MSG_FIXED));

	if (fixedMsg.op == DHCP_BOOTREPLY && _dhcpUdpSocket.remotePort() == DHCP_SERVER_PORT) {
		transactionId = ntohl(fixedMsg.xid);
		if (memcmp(fixedMsg.chaddr, _dhcpMacAddr, 6) != 0 ||
 400100c:	18800536 	bltu	r3,r2,4001024 <_ZN9DhcpClass17parseDHCPResponseEmRm+0x1e0>
		  (transactionId < _dhcpInitialTransactionId) ||
		  (transactionId > _dhcpTransactionId)) {
 4001010:	e0bfe917 	ldw	r2,-92(fp)
 4001014:	10800017 	ldw	r2,0(r2)
 4001018:	e0ffe717 	ldw	r3,-100(fp)
 400101c:	18c00117 	ldw	r3,4(r3)
	_dhcpUdpSocket.read((uint8_t*)&fixedMsg, sizeof(RIP_MSG_FIXED));

	if (fixedMsg.op == DHCP_BOOTREPLY && _dhcpUdpSocket.remotePort() == DHCP_SERVER_PORT) {
		transactionId = ntohl(fixedMsg.xid);
		if (memcmp(fixedMsg.chaddr, _dhcpMacAddr, 6) != 0 ||
		  (transactionId < _dhcpInitialTransactionId) ||
 4001020:	1880082e 	bgeu	r3,r2,4001044 <_ZN9DhcpClass17parseDHCPResponseEmRm+0x200>
		  (transactionId > _dhcpTransactionId)) {
			// Need to read the rest of the packet here regardless
			_dhcpUdpSocket.flush(); // FIXME
 4001024:	e0bfe717 	ldw	r2,-100(fp)
 4001028:	10c01204 	addi	r3,r2,72
 400102c:	00bfffc4 	movi	r2,-1
 4001030:	e0bfeb15 	stw	r2,-84(fp)
 4001034:	1809883a 	mov	r4,r3
 4001038:	40054240 	call	4005424 <_ZN11EthernetUDP5flushEv>
			return 0;
 400103c:	0005883a 	mov	r2,zero
 4001040:	00015906 	br	40015a8 <_ZN9DhcpClass17parseDHCPResponseEmRm+0x764>
		}

		memcpy(_dhcpLocalIp, fixedMsg.yiaddr, 4);
 4001044:	e0bfe717 	ldw	r2,-100(fp)
 4001048:	10800384 	addi	r2,r2,14
 400104c:	e0ffe203 	ldbu	r3,-120(fp)
 4001050:	10c00005 	stb	r3,0(r2)
 4001054:	e0ffe243 	ldbu	r3,-119(fp)
 4001058:	10c00045 	stb	r3,1(r2)
 400105c:	e0ffe283 	ldbu	r3,-118(fp)
 4001060:	10c00085 	stb	r3,2(r2)
 4001064:	e0ffe2c3 	ldbu	r3,-117(fp)
 4001068:	10c000c5 	stb	r3,3(r2)

		// Skip to the option part
		_dhcpUdpSocket.read((uint8_t *)NULL, 240 - (int)sizeof(RIP_MSG_FIXED));
 400106c:	e0bfe717 	ldw	r2,-100(fp)
 4001070:	11001204 	addi	r4,r2,72
 4001074:	00800904 	movi	r2,36
 4001078:	00c03c04 	movi	r3,240
 400107c:	1885c83a 	sub	r2,r3,r2
 4001080:	1007883a 	mov	r3,r2
 4001084:	00bfffc4 	movi	r2,-1
 4001088:	e0bfeb15 	stw	r2,-84(fp)
 400108c:	180d883a 	mov	r6,r3
 4001090:	000b883a 	mov	r5,zero
 4001094:	40052cc0 	call	40052cc <_ZN11EthernetUDP4readEPhj>

		while (_dhcpUdpSocket.available() > 0) {
 4001098:	e0bfe717 	ldw	r2,-100(fp)
 400109c:	10c01204 	addi	r3,r2,72
 40010a0:	00bfffc4 	movi	r2,-1
 40010a4:	e0bfeb15 	stw	r2,-84(fp)
 40010a8:	1809883a 	mov	r4,r3
 40010ac:	4004e400 	call	4004e40 <_ZN11EthernetUDP9availableEv>
 40010b0:	0084803a 	cmplt	r2,zero,r2
 40010b4:	10803fcc 	andi	r2,r2,255
 40010b8:	10013426 	beq	r2,zero,400158c <_ZN9DhcpClass17parseDHCPResponseEmRm+0x748>
			switch (_dhcpUdpSocket.read()) {
 40010bc:	e0bfe717 	ldw	r2,-100(fp)
 40010c0:	10801204 	addi	r2,r2,72
 40010c4:	1009883a 	mov	r4,r2
 40010c8:	40052380 	call	4005238 <_ZN11EthernetUDP4readEv>
 40010cc:	10c00ce0 	cmpeqi	r3,r2,51
 40010d0:	1800f41e 	bne	r3,zero,40014a4 <_ZN9DhcpClass17parseDHCPResponseEmRm+0x660>
 40010d4:	10c00d08 	cmpgei	r3,r2,52
 40010d8:	18000b1e 	bne	r3,zero,4001108 <_ZN9DhcpClass17parseDHCPResponseEmRm+0x2c4>
 40010dc:	10c00060 	cmpeqi	r3,r2,1
 40010e0:	1800241e 	bne	r3,zero,4001174 <_ZN9DhcpClass17parseDHCPResponseEmRm+0x330>
 40010e4:	10c00088 	cmpgei	r3,r2,2
 40010e8:	1800021e 	bne	r3,zero,40010f4 <_ZN9DhcpClass17parseDHCPResponseEmRm+0x2b0>
 40010ec:	10012326 	beq	r2,zero,400157c <_ZN9DhcpClass17parseDHCPResponseEmRm+0x738>
 40010f0:	00011306 	br	4001540 <_ZN9DhcpClass17parseDHCPResponseEmRm+0x6fc>
 40010f4:	10c000e0 	cmpeqi	r3,r2,3
 40010f8:	18002e1e 	bne	r3,zero,40011b4 <_ZN9DhcpClass17parseDHCPResponseEmRm+0x370>
 40010fc:	108001a0 	cmpeqi	r2,r2,6
 4001100:	1000441e 	bne	r2,zero,4001214 <_ZN9DhcpClass17parseDHCPResponseEmRm+0x3d0>
 4001104:	00010e06 	br	4001540 <_ZN9DhcpClass17parseDHCPResponseEmRm+0x6fc>
 4001108:	10c00ea0 	cmpeqi	r3,r2,58
 400110c:	18009f1e 	bne	r3,zero,400138c <_ZN9DhcpClass17parseDHCPResponseEmRm+0x548>
 4001110:	10c00ec8 	cmpgei	r3,r2,59
 4001114:	1800051e 	bne	r3,zero,400112c <_ZN9DhcpClass17parseDHCPResponseEmRm+0x2e8>
 4001118:	10c00d60 	cmpeqi	r3,r2,53
 400111c:	1800081e 	bne	r3,zero,4001140 <_ZN9DhcpClass17parseDHCPResponseEmRm+0x2fc>
 4001120:	10800da0 	cmpeqi	r2,r2,54
 4001124:	1000531e 	bne	r2,zero,4001274 <_ZN9DhcpClass17parseDHCPResponseEmRm+0x430>
 4001128:	00010506 	br	4001540 <_ZN9DhcpClass17parseDHCPResponseEmRm+0x6fc>
 400112c:	10c00ee0 	cmpeqi	r3,r2,59
 4001130:	1800b91e 	bne	r3,zero,4001418 <_ZN9DhcpClass17parseDHCPResponseEmRm+0x5d4>
 4001134:	10803fe0 	cmpeqi	r2,r2,255
 4001138:	1001121e 	bne	r2,zero,4001584 <_ZN9DhcpClass17parseDHCPResponseEmRm+0x740>
 400113c:	00010006 	br	4001540 <_ZN9DhcpClass17parseDHCPResponseEmRm+0x6fc>

			case padOption :
				break;

			case dhcpMessageType :
				opt_len = _dhcpUdpSocket.read();
 4001140:	e0bfe717 	ldw	r2,-100(fp)
 4001144:	10c01204 	addi	r3,r2,72
 4001148:	00bfffc4 	movi	r2,-1
 400114c:	e0bfeb15 	stw	r2,-84(fp)
 4001150:	1809883a 	mov	r4,r3
 4001154:	40052380 	call	4005238 <_ZN11EthernetUDP4readEv>
 4001158:	e0bfd845 	stb	r2,-159(fp)
				type = _dhcpUdpSocket.read();
 400115c:	e0bfe717 	ldw	r2,-100(fp)
 4001160:	10801204 	addi	r2,r2,72
 4001164:	1009883a 	mov	r4,r2
 4001168:	40052380 	call	4005238 <_ZN11EthernetUDP4readEv>
 400116c:	e0bfd805 	stb	r2,-160(fp)
				break;
 4001170:	00010506 	br	4001588 <_ZN9DhcpClass17parseDHCPResponseEmRm+0x744>

			case subnetMask :
				opt_len = _dhcpUdpSocket.read();
 4001174:	e0bfe717 	ldw	r2,-100(fp)
 4001178:	10c01204 	addi	r3,r2,72
 400117c:	00bfffc4 	movi	r2,-1
 4001180:	e0bfeb15 	stw	r2,-84(fp)
 4001184:	1809883a 	mov	r4,r3
 4001188:	40052380 	call	4005238 <_ZN11EthernetUDP4readEv>
 400118c:	e0bfd845 	stb	r2,-159(fp)
				_dhcpUdpSocket.read(_dhcpSubnetMask, 4);
 4001190:	e0bfe717 	ldw	r2,-100(fp)
 4001194:	10c01204 	addi	r3,r2,72
 4001198:	e0bfe717 	ldw	r2,-100(fp)
 400119c:	10800484 	addi	r2,r2,18
 40011a0:	01800104 	movi	r6,4
 40011a4:	100b883a 	mov	r5,r2
 40011a8:	1809883a 	mov	r4,r3
 40011ac:	40052cc0 	call	40052cc <_ZN11EthernetUDP4readEPhj>
				break;
 40011b0:	0000f506 	br	4001588 <_ZN9DhcpClass17parseDHCPResponseEmRm+0x744>

			case routersOnSubnet :
				opt_len = _dhcpUdpSocket.read();
 40011b4:	e0bfe717 	ldw	r2,-100(fp)
 40011b8:	10c01204 	addi	r3,r2,72
 40011bc:	00bfffc4 	movi	r2,-1
 40011c0:	e0bfeb15 	stw	r2,-84(fp)
 40011c4:	1809883a 	mov	r4,r3
 40011c8:	40052380 	call	4005238 <_ZN11EthernetUDP4readEv>
 40011cc:	e0bfd845 	stb	r2,-159(fp)
				_dhcpUdpSocket.read(_dhcpGatewayIp, 4);
 40011d0:	e0bfe717 	ldw	r2,-100(fp)
 40011d4:	10c01204 	addi	r3,r2,72
 40011d8:	e0bfe717 	ldw	r2,-100(fp)
 40011dc:	10800584 	addi	r2,r2,22
 40011e0:	01800104 	movi	r6,4
 40011e4:	100b883a 	mov	r5,r2
 40011e8:	1809883a 	mov	r4,r3
 40011ec:	40052cc0 	call	40052cc <_ZN11EthernetUDP4readEPhj>
				_dhcpUdpSocket.read((uint8_t *)NULL, opt_len - 4);
 40011f0:	e0bfe717 	ldw	r2,-100(fp)
 40011f4:	10c01204 	addi	r3,r2,72
 40011f8:	e0bfd843 	ldbu	r2,-159(fp)
 40011fc:	10bfff04 	addi	r2,r2,-4
 4001200:	100d883a 	mov	r6,r2
 4001204:	000b883a 	mov	r5,zero
 4001208:	1809883a 	mov	r4,r3
 400120c:	40052cc0 	call	40052cc <_ZN11EthernetUDP4readEPhj>
				break;
 4001210:	0000dd06 	br	4001588 <_ZN9DhcpClass17parseDHCPResponseEmRm+0x744>

			case dns :
				opt_len = _dhcpUdpSocket.read();
 4001214:	e0bfe717 	ldw	r2,-100(fp)
 4001218:	10c01204 	addi	r3,r2,72
 400121c:	00bfffc4 	movi	r2,-1
 4001220:	e0bfeb15 	stw	r2,-84(fp)
 4001224:	1809883a 	mov	r4,r3
 4001228:	40052380 	call	4005238 <_ZN11EthernetUDP4readEv>
 400122c:	e0bfd845 	stb	r2,-159(fp)
				_dhcpUdpSocket.read(_dhcpDnsServerIp, 4);
 4001230:	e0bfe717 	ldw	r2,-100(fp)
 4001234:	10c01204 	addi	r3,r2,72
 4001238:	e0bfe717 	ldw	r2,-100(fp)
 400123c:	10800784 	addi	r2,r2,30
 4001240:	01800104 	movi	r6,4
 4001244:	100b883a 	mov	r5,r2
 4001248:	1809883a 	mov	r4,r3
 400124c:	40052cc0 	call	40052cc <_ZN11EthernetUDP4readEPhj>
				_dhcpUdpSocket.read((uint8_t *)NULL, opt_len - 4);
 4001250:	e0bfe717 	ldw	r2,-100(fp)
 4001254:	10c01204 	addi	r3,r2,72
 4001258:	e0bfd843 	ldbu	r2,-159(fp)
 400125c:	10bfff04 	addi	r2,r2,-4
 4001260:	100d883a 	mov	r6,r2
 4001264:	000b883a 	mov	r5,zero
 4001268:	1809883a 	mov	r4,r3
 400126c:	40052cc0 	call	40052cc <_ZN11EthernetUDP4readEPhj>
				break;
 4001270:	0000c506 	br	4001588 <_ZN9DhcpClass17parseDHCPResponseEmRm+0x744>

			case dhcpServerIdentifier :
				opt_len = _dhcpUdpSocket.read();
 4001274:	e0bfe717 	ldw	r2,-100(fp)
 4001278:	10c01204 	addi	r3,r2,72
 400127c:	00bfffc4 	movi	r2,-1
 4001280:	e0bfeb15 	stw	r2,-84(fp)
 4001284:	1809883a 	mov	r4,r3
 4001288:	40052380 	call	4005238 <_ZN11EthernetUDP4readEv>
 400128c:	e0bfd845 	stb	r2,-159(fp)
				if ( IPAddress(_dhcpDhcpServerIp) == IPAddress((uint32_t)0) ||
 4001290:	e0bfe717 	ldw	r2,-100(fp)
 4001294:	11000684 	addi	r4,r2,26
 4001298:	e0ffdd04 	addi	r3,fp,-140
 400129c:	00800044 	movi	r2,1
 40012a0:	e0bfeb15 	stw	r2,-84(fp)
 40012a4:	200b883a 	mov	r5,r4
 40012a8:	1809883a 	mov	r4,r3
 40012ac:	400724c0 	call	400724c <_ZN9IPAddressC1EPKh>
 40012b0:	e0bfdc04 	addi	r2,fp,-144
 40012b4:	000b883a 	mov	r5,zero
 40012b8:	1009883a 	mov	r4,r2
 40012bc:	40072180 	call	4007218 <_ZN9IPAddressC1Em>
 40012c0:	e0ffdc04 	addi	r3,fp,-144
 40012c4:	e0bfdd04 	addi	r2,fp,-140
 40012c8:	180b883a 	mov	r5,r3
 40012cc:	1009883a 	mov	r4,r2
 40012d0:	4001a200 	call	4001a20 <_ZNK9IPAddresseqERKS_>
 40012d4:	10803fcc 	andi	r2,r2,255
 40012d8:	1000121e 	bne	r2,zero,4001324 <_ZN9DhcpClass17parseDHCPResponseEmRm+0x4e0>
				  IPAddress(_dhcpDhcpServerIp) == _dhcpUdpSocket.remoteIP() ) {
 40012dc:	e0bfe717 	ldw	r2,-100(fp)
 40012e0:	10c00684 	addi	r3,r2,26
 40012e4:	e0bfdb04 	addi	r2,fp,-148
 40012e8:	180b883a 	mov	r5,r3
 40012ec:	1009883a 	mov	r4,r2
 40012f0:	400724c0 	call	400724c <_ZN9IPAddressC1EPKh>
 40012f4:	e0bfe717 	ldw	r2,-100(fp)
 40012f8:	10801204 	addi	r2,r2,72
 40012fc:	1009883a 	mov	r4,r2
 4001300:	4001a580 	call	4001a58 <_ZN11EthernetUDP8remoteIPEv>
 4001304:	e0bfda15 	stw	r2,-152(fp)
 4001308:	e0ffda04 	addi	r3,fp,-152
 400130c:	e0bfdb04 	addi	r2,fp,-148
 4001310:	180b883a 	mov	r5,r3
 4001314:	1009883a 	mov	r4,r2
 4001318:	4001a200 	call	4001a20 <_ZNK9IPAddresseqERKS_>
				_dhcpUdpSocket.read((uint8_t *)NULL, opt_len - 4);
				break;

			case dhcpServerIdentifier :
				opt_len = _dhcpUdpSocket.read();
				if ( IPAddress(_dhcpDhcpServerIp) == IPAddress((uint32_t)0) ||
 400131c:	10803fcc 	andi	r2,r2,255
 4001320:	10000226 	beq	r2,zero,400132c <_ZN9DhcpClass17parseDHCPResponseEmRm+0x4e8>
 4001324:	00800044 	movi	r2,1
 4001328:	00000106 	br	4001330 <_ZN9DhcpClass17parseDHCPResponseEmRm+0x4ec>
 400132c:	0005883a 	mov	r2,zero
 4001330:	10803fcc 	andi	r2,r2,255
 4001334:	10000b26 	beq	r2,zero,4001364 <_ZN9DhcpClass17parseDHCPResponseEmRm+0x520>
				  IPAddress(_dhcpDhcpServerIp) == _dhcpUdpSocket.remoteIP() ) {
					_dhcpUdpSocket.read(_dhcpDhcpServerIp, sizeof(_dhcpDhcpServerIp));
 4001338:	e0bfe717 	ldw	r2,-100(fp)
 400133c:	10c01204 	addi	r3,r2,72
 4001340:	e0bfe717 	ldw	r2,-100(fp)
 4001344:	11000684 	addi	r4,r2,26
 4001348:	00bfffc4 	movi	r2,-1
 400134c:	e0bfeb15 	stw	r2,-84(fp)
 4001350:	01800104 	movi	r6,4
 4001354:	200b883a 	mov	r5,r4
 4001358:	1809883a 	mov	r4,r3
 400135c:	40052cc0 	call	40052cc <_ZN11EthernetUDP4readEPhj>
				} else {
					// Skip over the rest of this option
					_dhcpUdpSocket.read((uint8_t *)NULL, opt_len);
				}
				break;
 4001360:	00008906 	br	4001588 <_ZN9DhcpClass17parseDHCPResponseEmRm+0x744>
				if ( IPAddress(_dhcpDhcpServerIp) == IPAddress((uint32_t)0) ||
				  IPAddress(_dhcpDhcpServerIp) == _dhcpUdpSocket.remoteIP() ) {
					_dhcpUdpSocket.read(_dhcpDhcpServerIp, sizeof(_dhcpDhcpServerIp));
				} else {
					// Skip over the rest of this option
					_dhcpUdpSocket.read((uint8_t *)NULL, opt_len);
 4001364:	e0bfe717 	ldw	r2,-100(fp)
 4001368:	10c01204 	addi	r3,r2,72
 400136c:	e13fd843 	ldbu	r4,-159(fp)
 4001370:	00bfffc4 	movi	r2,-1
 4001374:	e0bfeb15 	stw	r2,-84(fp)
 4001378:	200d883a 	mov	r6,r4
 400137c:	000b883a 	mov	r5,zero
 4001380:	1809883a 	mov	r4,r3
 4001384:	40052cc0 	call	40052cc <_ZN11EthernetUDP4readEPhj>
				}
				break;
 4001388:	00007f06 	br	4001588 <_ZN9DhcpClass17parseDHCPResponseEmRm+0x744>

			case dhcpT1value :
				opt_len = _dhcpUdpSocket.read();
 400138c:	e0bfe717 	ldw	r2,-100(fp)
 4001390:	10c01204 	addi	r3,r2,72
 4001394:	00bfffc4 	movi	r2,-1
 4001398:	e0bfeb15 	stw	r2,-84(fp)
 400139c:	1809883a 	mov	r4,r3
 40013a0:	40052380 	call	4005238 <_ZN11EthernetUDP4readEv>
 40013a4:	e0bfd845 	stb	r2,-159(fp)
				_dhcpUdpSocket.read((uint8_t*)&_dhcpT1, sizeof(_dhcpT1));
 40013a8:	e0bfe717 	ldw	r2,-100(fp)
 40013ac:	10c01204 	addi	r3,r2,72
 40013b0:	e0bfe717 	ldw	r2,-100(fp)
 40013b4:	10800a04 	addi	r2,r2,40
 40013b8:	01800104 	movi	r6,4
 40013bc:	100b883a 	mov	r5,r2
 40013c0:	1809883a 	mov	r4,r3
 40013c4:	40052cc0 	call	40052cc <_ZN11EthernetUDP4readEPhj>
				_dhcpT1 = ntohl(_dhcpT1);
 40013c8:	e0bfe717 	ldw	r2,-100(fp)
 40013cc:	10800a17 	ldw	r2,40(r2)
 40013d0:	1006963a 	slli	r3,r2,24
 40013d4:	e0bfe717 	ldw	r2,-100(fp)
 40013d8:	10800a17 	ldw	r2,40(r2)
 40013dc:	1004923a 	slli	r2,r2,8
 40013e0:	10803fec 	andhi	r2,r2,255
 40013e4:	1886b03a 	or	r3,r3,r2
 40013e8:	e0bfe717 	ldw	r2,-100(fp)
 40013ec:	10800a17 	ldw	r2,40(r2)
 40013f0:	1004d23a 	srli	r2,r2,8
 40013f4:	10bfc00c 	andi	r2,r2,65280
 40013f8:	1886b03a 	or	r3,r3,r2
 40013fc:	e0bfe717 	ldw	r2,-100(fp)
 4001400:	10800a17 	ldw	r2,40(r2)
 4001404:	1004d63a 	srli	r2,r2,24
 4001408:	1886b03a 	or	r3,r3,r2
 400140c:	e0bfe717 	ldw	r2,-100(fp)
 4001410:	10c00a15 	stw	r3,40(r2)
				break;
 4001414:	00005c06 	br	4001588 <_ZN9DhcpClass17parseDHCPResponseEmRm+0x744>

			case dhcpT2value :
				opt_len = _dhcpUdpSocket.read();
 4001418:	e0bfe717 	ldw	r2,-100(fp)
 400141c:	10c01204 	addi	r3,r2,72
 4001420:	00bfffc4 	movi	r2,-1
 4001424:	e0bfeb15 	stw	r2,-84(fp)
 4001428:	1809883a 	mov	r4,r3
 400142c:	40052380 	call	4005238 <_ZN11EthernetUDP4readEv>
 4001430:	e0bfd845 	stb	r2,-159(fp)
				_dhcpUdpSocket.read((uint8_t*)&_dhcpT2, sizeof(_dhcpT2));
 4001434:	e0bfe717 	ldw	r2,-100(fp)
 4001438:	10c01204 	addi	r3,r2,72
 400143c:	e0bfe717 	ldw	r2,-100(fp)
 4001440:	10800b04 	addi	r2,r2,44
 4001444:	01800104 	movi	r6,4
 4001448:	100b883a 	mov	r5,r2
 400144c:	1809883a 	mov	r4,r3
 4001450:	40052cc0 	call	40052cc <_ZN11EthernetUDP4readEPhj>
				_dhcpT2 = ntohl(_dhcpT2);
 4001454:	e0bfe717 	ldw	r2,-100(fp)
 4001458:	10800b17 	ldw	r2,44(r2)
 400145c:	1006963a 	slli	r3,r2,24
 4001460:	e0bfe717 	ldw	r2,-100(fp)
 4001464:	10800b17 	ldw	r2,44(r2)
 4001468:	1004923a 	slli	r2,r2,8
 400146c:	10803fec 	andhi	r2,r2,255
 4001470:	1886b03a 	or	r3,r3,r2
 4001474:	e0bfe717 	ldw	r2,-100(fp)
 4001478:	10800b17 	ldw	r2,44(r2)
 400147c:	1004d23a 	srli	r2,r2,8
 4001480:	10bfc00c 	andi	r2,r2,65280
 4001484:	1886b03a 	or	r3,r3,r2
 4001488:	e0bfe717 	ldw	r2,-100(fp)
 400148c:	10800b17 	ldw	r2,44(r2)
 4001490:	1004d63a 	srli	r2,r2,24
 4001494:	1886b03a 	or	r3,r3,r2
 4001498:	e0bfe717 	ldw	r2,-100(fp)
 400149c:	10c00b15 	stw	r3,44(r2)
				break;
 40014a0:	00003906 	br	4001588 <_ZN9DhcpClass17parseDHCPResponseEmRm+0x744>

			case dhcpIPaddrLeaseTime :
				opt_len = _dhcpUdpSocket.read();
 40014a4:	e0bfe717 	ldw	r2,-100(fp)
 40014a8:	10c01204 	addi	r3,r2,72
 40014ac:	00bfffc4 	movi	r2,-1
 40014b0:	e0bfeb15 	stw	r2,-84(fp)
 40014b4:	1809883a 	mov	r4,r3
 40014b8:	40052380 	call	4005238 <_ZN11EthernetUDP4readEv>
 40014bc:	e0bfd845 	stb	r2,-159(fp)
				_dhcpUdpSocket.read((uint8_t*)&_dhcpLeaseTime, sizeof(_dhcpLeaseTime));
 40014c0:	e0bfe717 	ldw	r2,-100(fp)
 40014c4:	10c01204 	addi	r3,r2,72
 40014c8:	e0bfe717 	ldw	r2,-100(fp)
 40014cc:	10800904 	addi	r2,r2,36
 40014d0:	01800104 	movi	r6,4
 40014d4:	100b883a 	mov	r5,r2
 40014d8:	1809883a 	mov	r4,r3
 40014dc:	40052cc0 	call	40052cc <_ZN11EthernetUDP4readEPhj>
				_dhcpLeaseTime = ntohl(_dhcpLeaseTime);
 40014e0:	e0bfe717 	ldw	r2,-100(fp)
 40014e4:	10800917 	ldw	r2,36(r2)
 40014e8:	1006963a 	slli	r3,r2,24
 40014ec:	e0bfe717 	ldw	r2,-100(fp)
 40014f0:	10800917 	ldw	r2,36(r2)
 40014f4:	1004923a 	slli	r2,r2,8
 40014f8:	10803fec 	andhi	r2,r2,255
 40014fc:	1886b03a 	or	r3,r3,r2
 4001500:	e0bfe717 	ldw	r2,-100(fp)
 4001504:	10800917 	ldw	r2,36(r2)
 4001508:	1004d23a 	srli	r2,r2,8
 400150c:	10bfc00c 	andi	r2,r2,65280
 4001510:	1886b03a 	or	r3,r3,r2
 4001514:	e0bfe717 	ldw	r2,-100(fp)
 4001518:	10800917 	ldw	r2,36(r2)
 400151c:	1004d63a 	srli	r2,r2,24
 4001520:	1886b03a 	or	r3,r3,r2
 4001524:	e0bfe717 	ldw	r2,-100(fp)
 4001528:	10c00915 	stw	r3,36(r2)
				_renewInSec = _dhcpLeaseTime;
 400152c:	e0bfe717 	ldw	r2,-100(fp)
 4001530:	10c00917 	ldw	r3,36(r2)
 4001534:	e0bfe717 	ldw	r2,-100(fp)
 4001538:	10c00c15 	stw	r3,48(r2)
				break;
 400153c:	00001206 	br	4001588 <_ZN9DhcpClass17parseDHCPResponseEmRm+0x744>

			default :
				opt_len = _dhcpUdpSocket.read();
 4001540:	e0bfe717 	ldw	r2,-100(fp)
 4001544:	10c01204 	addi	r3,r2,72
 4001548:	00bfffc4 	movi	r2,-1
 400154c:	e0bfeb15 	stw	r2,-84(fp)
 4001550:	1809883a 	mov	r4,r3
 4001554:	40052380 	call	4005238 <_ZN11EthernetUDP4readEv>
 4001558:	e0bfd845 	stb	r2,-159(fp)
				// Skip over the rest of this option
				_dhcpUdpSocket.read((uint8_t *)NULL, opt_len);
 400155c:	e0bfe717 	ldw	r2,-100(fp)
 4001560:	10801204 	addi	r2,r2,72
 4001564:	e0ffd843 	ldbu	r3,-159(fp)
 4001568:	180d883a 	mov	r6,r3
 400156c:	000b883a 	mov	r5,zero
 4001570:	1009883a 	mov	r4,r2
 4001574:	40052cc0 	call	40052cc <_ZN11EthernetUDP4readEPhj>
				break;
 4001578:	00000306 	br	4001588 <_ZN9DhcpClass17parseDHCPResponseEmRm+0x744>
			switch (_dhcpUdpSocket.read()) {
			case endOption :
				break;

			case padOption :
				break;
 400157c:	0001883a 	nop
 4001580:	003ec506 	br	4001098 <__alt_data_end+0xfc001098>
		_dhcpUdpSocket.read((uint8_t *)NULL, 240 - (int)sizeof(RIP_MSG_FIXED));

		while (_dhcpUdpSocket.available() > 0) {
			switch (_dhcpUdpSocket.read()) {
			case endOption :
				break;
 4001584:	0001883a 	nop
		memcpy(_dhcpLocalIp, fixedMsg.yiaddr, 4);

		// Skip to the option part
		_dhcpUdpSocket.read((uint8_t *)NULL, 240 - (int)sizeof(RIP_MSG_FIXED));

		while (_dhcpUdpSocket.available() > 0) {
 4001588:	003ec306 	br	4001098 <__alt_data_end+0xfc001098>
			}
		}
	}

	// Need to skip to end of the packet regardless here
	_dhcpUdpSocket.flush(); // FIXME
 400158c:	e0bfe717 	ldw	r2,-100(fp)
 4001590:	10c01204 	addi	r3,r2,72
 4001594:	00bfffc4 	movi	r2,-1
 4001598:	e0bfeb15 	stw	r2,-84(fp)
 400159c:	1809883a 	mov	r4,r3
 40015a0:	40054240 	call	4005424 <_ZN11EthernetUDP5flushEv>

	return type;
 40015a4:	e0bfd803 	ldbu	r2,-160(fp)
 40015a8:	e0bff705 	stb	r2,-36(fp)
 40015ac:	00000806 	br	40015d0 <_ZN9DhcpClass17parseDHCPResponseEmRm+0x78c>
 40015b0:	e7002804 	addi	fp,fp,160
 40015b4:	e0bfec17 	ldw	r2,-80(fp)
				_dhcpUdpSocket.read((uint8_t *)NULL, opt_len - 4);
				break;

			case dhcpServerIdentifier :
				opt_len = _dhcpUdpSocket.read();
				if ( IPAddress(_dhcpDhcpServerIp) == IPAddress((uint32_t)0) ||
 40015b8:	0001883a 	nop
 40015bc:	1007883a 	mov	r3,r2
 40015c0:	00bfffc4 	movi	r2,-1
 40015c4:	e0bfeb15 	stw	r2,-84(fp)
 40015c8:	1809883a 	mov	r4,r3
 40015cc:	400aa940 	call	400aa94 <_Unwind_SjLj_Resume>
 40015d0:	e0bfea04 	addi	r2,fp,-88
 40015d4:	1009883a 	mov	r4,r2
 40015d8:	400a8b00 	call	400a8b0 <_Unwind_SjLj_Unregister>

	// Need to skip to end of the packet regardless here
	_dhcpUdpSocket.flush(); // FIXME

	return type;
}
 40015dc:	e0bff703 	ldbu	r2,-36(fp)
 40015e0:	e6fff804 	addi	sp,fp,-32
 40015e4:	dfc00917 	ldw	ra,36(sp)
 40015e8:	df000817 	ldw	fp,32(sp)
 40015ec:	ddc00717 	ldw	r23,28(sp)
 40015f0:	dd800617 	ldw	r22,24(sp)
 40015f4:	dd400517 	ldw	r21,20(sp)
 40015f8:	dd000417 	ldw	r20,16(sp)
 40015fc:	dcc00317 	ldw	r19,12(sp)
 4001600:	dc800217 	ldw	r18,8(sp)
 4001604:	dc400117 	ldw	r17,4(sp)
 4001608:	dc000017 	ldw	r16,0(sp)
 400160c:	dec00a04 	addi	sp,sp,40
 4001610:	f800283a 	ret

04001614 <_ZN9DhcpClass10checkLeaseEv>:
    2/DHCP_CHECK_RENEW_OK: renew success
    3/DHCP_CHECK_REBIND_FAIL: rebind fail
    4/DHCP_CHECK_REBIND_OK: rebind success
*/
int DhcpClass::checkLease()
{
 4001614:	defffa04 	addi	sp,sp,-24
 4001618:	dfc00515 	stw	ra,20(sp)
 400161c:	df000415 	stw	fp,16(sp)
 4001620:	df000404 	addi	fp,sp,16
 4001624:	e13fff15 	stw	r4,-4(fp)
	int rc = DHCP_CHECK_NONE;
 4001628:	e03ffc15 	stw	zero,-16(fp)

	unsigned long now = millis();
 400162c:	40075380 	call	4007538 <_Z6millisv>
 4001630:	e0bffd15 	stw	r2,-12(fp)
	unsigned long elapsed = now - _lastCheckLeaseMillis;
 4001634:	e0bfff17 	ldw	r2,-4(fp)
 4001638:	10801017 	ldw	r2,64(r2)
 400163c:	e0fffd17 	ldw	r3,-12(fp)
 4001640:	1885c83a 	sub	r2,r3,r2
 4001644:	e0bffe15 	stw	r2,-8(fp)

	// if more then one sec passed, reduce the counters accordingly
	if (elapsed >= 1000) {
 4001648:	e0bffe17 	ldw	r2,-8(fp)
 400164c:	1080fa30 	cmpltui	r2,r2,1000
 4001650:	10002a1e 	bne	r2,zero,40016fc <_ZN9DhcpClass10checkLeaseEv+0xe8>
		// set the new timestamps
		_lastCheckLeaseMillis = now - (elapsed % 1000);
 4001654:	e0bffe17 	ldw	r2,-8(fp)
 4001658:	0140fa04 	movi	r5,1000
 400165c:	1009883a 	mov	r4,r2
 4001660:	400a6380 	call	400a638 <__umodsi3>
 4001664:	1007883a 	mov	r3,r2
 4001668:	e0bffd17 	ldw	r2,-12(fp)
 400166c:	10c7c83a 	sub	r3,r2,r3
 4001670:	e0bfff17 	ldw	r2,-4(fp)
 4001674:	10c01015 	stw	r3,64(r2)
		elapsed = elapsed / 1000;
 4001678:	e0bffe17 	ldw	r2,-8(fp)
 400167c:	0140fa04 	movi	r5,1000
 4001680:	1009883a 	mov	r4,r2
 4001684:	400a5d40 	call	400a5d4 <__udivsi3>
 4001688:	e0bffe15 	stw	r2,-8(fp)

		// decrease the counters by elapsed seconds
		// we assume that the cycle time (elapsed) is fairly constant
		// if the remainder is less than cycle time * 2
		// do it early instead of late
		if (_renewInSec < elapsed * 2) {
 400168c:	e0bfff17 	ldw	r2,-4(fp)
 4001690:	10c00c17 	ldw	r3,48(r2)
 4001694:	e0bffe17 	ldw	r2,-8(fp)
 4001698:	1085883a 	add	r2,r2,r2
 400169c:	1880032e 	bgeu	r3,r2,40016ac <_ZN9DhcpClass10checkLeaseEv+0x98>
			_renewInSec = 0;
 40016a0:	e0bfff17 	ldw	r2,-4(fp)
 40016a4:	10000c15 	stw	zero,48(r2)
 40016a8:	00000606 	br	40016c4 <_ZN9DhcpClass10checkLeaseEv+0xb0>
		} else {
			_renewInSec -= elapsed;
 40016ac:	e0bfff17 	ldw	r2,-4(fp)
 40016b0:	10c00c17 	ldw	r3,48(r2)
 40016b4:	e0bffe17 	ldw	r2,-8(fp)
 40016b8:	1887c83a 	sub	r3,r3,r2
 40016bc:	e0bfff17 	ldw	r2,-4(fp)
 40016c0:	10c00c15 	stw	r3,48(r2)
		}
		if (_rebindInSec < elapsed * 2) {
 40016c4:	e0bfff17 	ldw	r2,-4(fp)
 40016c8:	10c00d17 	ldw	r3,52(r2)
 40016cc:	e0bffe17 	ldw	r2,-8(fp)
 40016d0:	1085883a 	add	r2,r2,r2
 40016d4:	1880032e 	bgeu	r3,r2,40016e4 <_ZN9DhcpClass10checkLeaseEv+0xd0>
			_rebindInSec = 0;
 40016d8:	e0bfff17 	ldw	r2,-4(fp)
 40016dc:	10000d15 	stw	zero,52(r2)
 40016e0:	00000606 	br	40016fc <_ZN9DhcpClass10checkLeaseEv+0xe8>
		} else {
			_rebindInSec -= elapsed;
 40016e4:	e0bfff17 	ldw	r2,-4(fp)
 40016e8:	10c00d17 	ldw	r3,52(r2)
 40016ec:	e0bffe17 	ldw	r2,-8(fp)
 40016f0:	1887c83a 	sub	r3,r3,r2
 40016f4:	e0bfff17 	ldw	r2,-4(fp)
 40016f8:	10c00d15 	stw	r3,52(r2)
		}
	}

	// if we have a lease but should renew, do it
	if (_renewInSec == 0 &&_dhcp_state == STATE_DHCP_LEASED) {
 40016fc:	e0bfff17 	ldw	r2,-4(fp)
 4001700:	10800c17 	ldw	r2,48(r2)
 4001704:	10000c1e 	bne	r2,zero,4001738 <_ZN9DhcpClass10checkLeaseEv+0x124>
 4001708:	e0bfff17 	ldw	r2,-4(fp)
 400170c:	10801103 	ldbu	r2,68(r2)
 4001710:	10803fcc 	andi	r2,r2,255
 4001714:	108000d8 	cmpnei	r2,r2,3
 4001718:	1000071e 	bne	r2,zero,4001738 <_ZN9DhcpClass10checkLeaseEv+0x124>
		_dhcp_state = STATE_DHCP_REREQUEST;
 400171c:	e0bfff17 	ldw	r2,-4(fp)
 4001720:	00c00104 	movi	r3,4
 4001724:	10c01105 	stb	r3,68(r2)
		rc = 1 + request_DHCP_lease();
 4001728:	e13fff17 	ldw	r4,-4(fp)
 400172c:	40006480 	call	4000648 <_ZN9DhcpClass18request_DHCP_leaseEv>
 4001730:	10800044 	addi	r2,r2,1
 4001734:	e0bffc15 	stw	r2,-16(fp)
	}

	// if we have a lease or is renewing but should bind, do it
	if (_rebindInSec == 0 && (_dhcp_state == STATE_DHCP_LEASED ||
 4001738:	e0bfff17 	ldw	r2,-4(fp)
 400173c:	10800d17 	ldw	r2,52(r2)
 4001740:	1000111e 	bne	r2,zero,4001788 <_ZN9DhcpClass10checkLeaseEv+0x174>
 4001744:	e0bfff17 	ldw	r2,-4(fp)
 4001748:	10801103 	ldbu	r2,68(r2)
 400174c:	10803fcc 	andi	r2,r2,255
 4001750:	108000e0 	cmpeqi	r2,r2,3
 4001754:	1000041e 	bne	r2,zero,4001768 <_ZN9DhcpClass10checkLeaseEv+0x154>
	  _dhcp_state == STATE_DHCP_START)) {
 4001758:	e0bfff17 	ldw	r2,-4(fp)
 400175c:	10801103 	ldbu	r2,68(r2)
		_dhcp_state = STATE_DHCP_REREQUEST;
		rc = 1 + request_DHCP_lease();
	}

	// if we have a lease or is renewing but should bind, do it
	if (_rebindInSec == 0 && (_dhcp_state == STATE_DHCP_LEASED ||
 4001760:	10803fcc 	andi	r2,r2,255
 4001764:	1000081e 	bne	r2,zero,4001788 <_ZN9DhcpClass10checkLeaseEv+0x174>
	  _dhcp_state == STATE_DHCP_START)) {
		// this should basically restart completely
		_dhcp_state = STATE_DHCP_START;
 4001768:	e0bfff17 	ldw	r2,-4(fp)
 400176c:	10001105 	stb	zero,68(r2)
		reset_DHCP_lease();
 4001770:	e13fff17 	ldw	r4,-4(fp)
 4001774:	40006040 	call	4000604 <_ZN9DhcpClass16reset_DHCP_leaseEv>
		rc = 3 + request_DHCP_lease();
 4001778:	e13fff17 	ldw	r4,-4(fp)
 400177c:	40006480 	call	4000648 <_ZN9DhcpClass18request_DHCP_leaseEv>
 4001780:	108000c4 	addi	r2,r2,3
 4001784:	e0bffc15 	stw	r2,-16(fp)
	}
	return rc;
 4001788:	e0bffc17 	ldw	r2,-16(fp)
}
 400178c:	e037883a 	mov	sp,fp
 4001790:	dfc00117 	ldw	ra,4(sp)
 4001794:	df000017 	ldw	fp,0(sp)
 4001798:	dec00204 	addi	sp,sp,8
 400179c:	f800283a 	ret

040017a0 <_ZN9DhcpClass10getLocalIpEv>:

IPAddress DhcpClass::getLocalIp()
{
 40017a0:	defffc04 	addi	sp,sp,-16
 40017a4:	dfc00315 	stw	ra,12(sp)
 40017a8:	df000215 	stw	fp,8(sp)
 40017ac:	df000204 	addi	fp,sp,8
 40017b0:	e13fff15 	stw	r4,-4(fp)
	return IPAddress(_dhcpLocalIp);
 40017b4:	e0bfff17 	ldw	r2,-4(fp)
 40017b8:	10800384 	addi	r2,r2,14
 40017bc:	100b883a 	mov	r5,r2
 40017c0:	e13ffe04 	addi	r4,fp,-8
 40017c4:	400724c0 	call	400724c <_ZN9IPAddressC1EPKh>
 40017c8:	e0bffe17 	ldw	r2,-8(fp)
}
 40017cc:	e037883a 	mov	sp,fp
 40017d0:	dfc00117 	ldw	ra,4(sp)
 40017d4:	df000017 	ldw	fp,0(sp)
 40017d8:	dec00204 	addi	sp,sp,8
 40017dc:	f800283a 	ret

040017e0 <_ZN9DhcpClass13getSubnetMaskEv>:

IPAddress DhcpClass::getSubnetMask()
{
 40017e0:	defffc04 	addi	sp,sp,-16
 40017e4:	dfc00315 	stw	ra,12(sp)
 40017e8:	df000215 	stw	fp,8(sp)
 40017ec:	df000204 	addi	fp,sp,8
 40017f0:	e13fff15 	stw	r4,-4(fp)
	return IPAddress(_dhcpSubnetMask);
 40017f4:	e0bfff17 	ldw	r2,-4(fp)
 40017f8:	10800484 	addi	r2,r2,18
 40017fc:	100b883a 	mov	r5,r2
 4001800:	e13ffe04 	addi	r4,fp,-8
 4001804:	400724c0 	call	400724c <_ZN9IPAddressC1EPKh>
 4001808:	e0bffe17 	ldw	r2,-8(fp)
}
 400180c:	e037883a 	mov	sp,fp
 4001810:	dfc00117 	ldw	ra,4(sp)
 4001814:	df000017 	ldw	fp,0(sp)
 4001818:	dec00204 	addi	sp,sp,8
 400181c:	f800283a 	ret

04001820 <_ZN9DhcpClass12getGatewayIpEv>:

IPAddress DhcpClass::getGatewayIp()
{
 4001820:	defffc04 	addi	sp,sp,-16
 4001824:	dfc00315 	stw	ra,12(sp)
 4001828:	df000215 	stw	fp,8(sp)
 400182c:	df000204 	addi	fp,sp,8
 4001830:	e13fff15 	stw	r4,-4(fp)
	return IPAddress(_dhcpGatewayIp);
 4001834:	e0bfff17 	ldw	r2,-4(fp)
 4001838:	10800584 	addi	r2,r2,22
 400183c:	100b883a 	mov	r5,r2
 4001840:	e13ffe04 	addi	r4,fp,-8
 4001844:	400724c0 	call	400724c <_ZN9IPAddressC1EPKh>
 4001848:	e0bffe17 	ldw	r2,-8(fp)
}
 400184c:	e037883a 	mov	sp,fp
 4001850:	dfc00117 	ldw	ra,4(sp)
 4001854:	df000017 	ldw	fp,0(sp)
 4001858:	dec00204 	addi	sp,sp,8
 400185c:	f800283a 	ret

04001860 <_ZN9DhcpClass15getDhcpServerIpEv>:

IPAddress DhcpClass::getDhcpServerIp()
{
 4001860:	defffc04 	addi	sp,sp,-16
 4001864:	dfc00315 	stw	ra,12(sp)
 4001868:	df000215 	stw	fp,8(sp)
 400186c:	df000204 	addi	fp,sp,8
 4001870:	e13fff15 	stw	r4,-4(fp)
	return IPAddress(_dhcpDhcpServerIp);
 4001874:	e0bfff17 	ldw	r2,-4(fp)
 4001878:	10800684 	addi	r2,r2,26
 400187c:	100b883a 	mov	r5,r2
 4001880:	e13ffe04 	addi	r4,fp,-8
 4001884:	400724c0 	call	400724c <_ZN9IPAddressC1EPKh>
 4001888:	e0bffe17 	ldw	r2,-8(fp)
}
 400188c:	e037883a 	mov	sp,fp
 4001890:	dfc00117 	ldw	ra,4(sp)
 4001894:	df000017 	ldw	fp,0(sp)
 4001898:	dec00204 	addi	sp,sp,8
 400189c:	f800283a 	ret

040018a0 <_ZN9DhcpClass14getDnsServerIpEv>:

IPAddress DhcpClass::getDnsServerIp()
{
 40018a0:	defffc04 	addi	sp,sp,-16
 40018a4:	dfc00315 	stw	ra,12(sp)
 40018a8:	df000215 	stw	fp,8(sp)
 40018ac:	df000204 	addi	fp,sp,8
 40018b0:	e13fff15 	stw	r4,-4(fp)
	return IPAddress(_dhcpDnsServerIp);
 40018b4:	e0bfff17 	ldw	r2,-4(fp)
 40018b8:	10800784 	addi	r2,r2,30
 40018bc:	100b883a 	mov	r5,r2
 40018c0:	e13ffe04 	addi	r4,fp,-8
 40018c4:	400724c0 	call	400724c <_ZN9IPAddressC1EPKh>
 40018c8:	e0bffe17 	ldw	r2,-8(fp)
}
 40018cc:	e037883a 	mov	sp,fp
 40018d0:	dfc00117 	ldw	ra,4(sp)
 40018d4:	df000017 	ldw	fp,0(sp)
 40018d8:	dec00204 	addi	sp,sp,8
 40018dc:	f800283a 	ret

040018e0 <_ZN9DhcpClass9printByteEPch>:

void DhcpClass::printByte(char * buf, uint8_t n )
{
 40018e0:	defff904 	addi	sp,sp,-28
 40018e4:	df000615 	stw	fp,24(sp)
 40018e8:	df000604 	addi	fp,sp,24
 40018ec:	e13ffd15 	stw	r4,-12(fp)
 40018f0:	e17ffe15 	stw	r5,-8(fp)
 40018f4:	3005883a 	mov	r2,r6
 40018f8:	e0bfff05 	stb	r2,-4(fp)
	char *str = &buf[1];
 40018fc:	e0bffe17 	ldw	r2,-8(fp)
 4001900:	10800044 	addi	r2,r2,1
 4001904:	e0bffa15 	stw	r2,-24(fp)
	buf[0]='0';
 4001908:	e0bffe17 	ldw	r2,-8(fp)
 400190c:	00c00c04 	movi	r3,48
 4001910:	10c00005 	stb	r3,0(r2)
	do {
		unsigned long m = n;
 4001914:	e0bfff03 	ldbu	r2,-4(fp)
 4001918:	e0bffb15 	stw	r2,-20(fp)
		n /= 16;
 400191c:	e0bfff03 	ldbu	r2,-4(fp)
 4001920:	1004d13a 	srli	r2,r2,4
 4001924:	e0bfff05 	stb	r2,-4(fp)
		char c = m - 16 * n;
 4001928:	e0bffb17 	ldw	r2,-20(fp)
 400192c:	1007883a 	mov	r3,r2
 4001930:	e0bfff03 	ldbu	r2,-4(fp)
 4001934:	1004913a 	slli	r2,r2,4
 4001938:	1885c83a 	sub	r2,r3,r2
 400193c:	e0bffc05 	stb	r2,-16(fp)
		*str-- = c < 10 ? c + '0' : c + 'A' - 10;
 4001940:	e0bffa17 	ldw	r2,-24(fp)
 4001944:	10ffffc4 	addi	r3,r2,-1
 4001948:	e0fffa15 	stw	r3,-24(fp)
 400194c:	e0fffc07 	ldb	r3,-16(fp)
 4001950:	18c00288 	cmpgei	r3,r3,10
 4001954:	1800031e 	bne	r3,zero,4001964 <_ZN9DhcpClass9printByteEPch+0x84>
 4001958:	e0fffc03 	ldbu	r3,-16(fp)
 400195c:	18c00c04 	addi	r3,r3,48
 4001960:	00000206 	br	400196c <_ZN9DhcpClass9printByteEPch+0x8c>
 4001964:	e0fffc03 	ldbu	r3,-16(fp)
 4001968:	18c00dc4 	addi	r3,r3,55
 400196c:	10c00005 	stb	r3,0(r2)

void DhcpClass::printByte(char * buf, uint8_t n )
{
	char *str = &buf[1];
	buf[0]='0';
	do {
 4001970:	e0bfff03 	ldbu	r2,-4(fp)
 4001974:	10000126 	beq	r2,zero,400197c <_ZN9DhcpClass9printByteEPch+0x9c>
 4001978:	003fe606 	br	4001914 <__alt_data_end+0xfc001914>
		unsigned long m = n;
		n /= 16;
		char c = m - 16 * n;
		*str-- = c < 10 ? c + '0' : c + 'A' - 10;
	} while(n);
}
 400197c:	0001883a 	nop
 4001980:	e037883a 	mov	sp,fp
 4001984:	df000017 	ldw	fp,0(sp)
 4001988:	dec00104 	addi	sp,sp,4
 400198c:	f800283a 	ret

04001990 <_Z41__static_initialization_and_destruction_0ii>:
 4001990:	defffb04 	addi	sp,sp,-20
 4001994:	dfc00415 	stw	ra,16(sp)
 4001998:	df000315 	stw	fp,12(sp)
 400199c:	df000304 	addi	fp,sp,12
 40019a0:	e13ffe15 	stw	r4,-8(fp)
 40019a4:	e17fff15 	stw	r5,-4(fp)
 40019a8:	e0bffe17 	ldw	r2,-8(fp)
 40019ac:	10800058 	cmpnei	r2,r2,1
 40019b0:	1000091e 	bne	r2,zero,40019d8 <_Z41__static_initialization_and_destruction_0ii+0x48>
 40019b4:	e0ffff17 	ldw	r3,-4(fp)
 40019b8:	00bfffd4 	movui	r2,65535
 40019bc:	1880061e 	bne	r3,r2,40019d8 <_Z41__static_initialization_and_destruction_0ii+0x48>
    friend class Server;
    friend class DhcpClass;
    friend class DNSClient;
};

const IPAddress INADDR_NONE(0,0,0,0);
 40019c0:	d8000015 	stw	zero,0(sp)
 40019c4:	000f883a 	mov	r7,zero
 40019c8:	000d883a 	mov	r6,zero
 40019cc:	000b883a 	mov	r5,zero
 40019d0:	d13ca604 	addi	r4,gp,-3432
 40019d4:	40071a80 	call	40071a8 <_ZN9IPAddressC1Ehhhh>
 40019d8:	0001883a 	nop
 40019dc:	e037883a 	mov	sp,fp
 40019e0:	dfc00117 	ldw	ra,4(sp)
 40019e4:	df000017 	ldw	fp,0(sp)
 40019e8:	dec00204 	addi	sp,sp,8
 40019ec:	f800283a 	ret

040019f0 <_GLOBAL__sub_I__ZN9DhcpClass13beginWithDHCPEPhmm>:
 40019f0:	defffe04 	addi	sp,sp,-8
 40019f4:	dfc00115 	stw	ra,4(sp)
 40019f8:	df000015 	stw	fp,0(sp)
 40019fc:	d839883a 	mov	fp,sp
 4001a00:	017fffd4 	movui	r5,65535
 4001a04:	01000044 	movi	r4,1
 4001a08:	40019900 	call	4001990 <_Z41__static_initialization_and_destruction_0ii>
 4001a0c:	e037883a 	mov	sp,fp
 4001a10:	dfc00117 	ldw	ra,4(sp)
 4001a14:	df000017 	ldw	fp,0(sp)
 4001a18:	dec00204 	addi	sp,sp,8
 4001a1c:	f800283a 	ret

04001a20 <_ZNK9IPAddresseqERKS_>:
    bool fromString(const char *address);

    // Overloaded cast operator to allow IPAddress objects to be used where a pointer
    // to a four-byte uint8_t array is expected
    operator uint32_t() const { return _address.dword; };
    bool operator==(const IPAddress& addr) const { return _address.dword == addr._address.dword; };
 4001a20:	defffd04 	addi	sp,sp,-12
 4001a24:	df000215 	stw	fp,8(sp)
 4001a28:	df000204 	addi	fp,sp,8
 4001a2c:	e13ffe15 	stw	r4,-8(fp)
 4001a30:	e17fff15 	stw	r5,-4(fp)
 4001a34:	e0bffe17 	ldw	r2,-8(fp)
 4001a38:	10c00017 	ldw	r3,0(r2)
 4001a3c:	e0bfff17 	ldw	r2,-4(fp)
 4001a40:	10800017 	ldw	r2,0(r2)
 4001a44:	1885003a 	cmpeq	r2,r3,r2
 4001a48:	e037883a 	mov	sp,fp
 4001a4c:	df000017 	ldw	fp,0(sp)
 4001a50:	dec00104 	addi	sp,sp,4
 4001a54:	f800283a 	ret

04001a58 <_ZN11EthernetUDP8remoteIPEv>:
	// Return the next byte from the current packet without moving on to the next byte
	virtual int peek();
	virtual void flush(); // Finish reading the current packet

	// Return the IP address of the host who sent the current incoming packet
	virtual IPAddress remoteIP() { return _remoteIP; };
 4001a58:	defffe04 	addi	sp,sp,-8
 4001a5c:	df000115 	stw	fp,4(sp)
 4001a60:	df000104 	addi	fp,sp,4
 4001a64:	e13fff15 	stw	r4,-4(fp)
 4001a68:	e0bfff17 	ldw	r2,-4(fp)
 4001a6c:	10800217 	ldw	r2,8(r2)
 4001a70:	e037883a 	mov	sp,fp
 4001a74:	df000017 	ldw	fp,0(sp)
 4001a78:	dec00104 	addi	sp,sp,4
 4001a7c:	f800283a 	ret

04001a80 <_ZN11EthernetUDP10remotePortEv>:
	// Return the port of the host who sent the current incoming packet
	virtual uint16_t remotePort() { return _remotePort; };
 4001a80:	defffe04 	addi	sp,sp,-8
 4001a84:	df000115 	stw	fp,4(sp)
 4001a88:	df000104 	addi	fp,sp,4
 4001a8c:	e13fff15 	stw	r4,-4(fp)
 4001a90:	e0bfff17 	ldw	r2,-4(fp)
 4001a94:	1080030b 	ldhu	r2,12(r2)
 4001a98:	e037883a 	mov	sp,fp
 4001a9c:	df000017 	ldw	fp,0(sp)
 4001aa0:	dec00104 	addi	sp,sp,4
 4001aa4:	f800283a 	ret

04001aa8 <_ZN9DNSClient5beginERK9IPAddress>:
#define INVALID_SERVER   -2
#define TRUNCATED        -3
#define INVALID_RESPONSE -4

void DNSClient::begin(const IPAddress& aDNSServer)
{
 4001aa8:	defffd04 	addi	sp,sp,-12
 4001aac:	df000215 	stw	fp,8(sp)
 4001ab0:	df000204 	addi	fp,sp,8
 4001ab4:	e13ffe15 	stw	r4,-8(fp)
 4001ab8:	e17fff15 	stw	r5,-4(fp)
	iDNSServer = aDNSServer;
 4001abc:	e0bffe17 	ldw	r2,-8(fp)
 4001ac0:	e0ffff17 	ldw	r3,-4(fp)
 4001ac4:	18c00017 	ldw	r3,0(r3)
 4001ac8:	10c00015 	stw	r3,0(r2)
	iRequestId = 0;
 4001acc:	e0bffe17 	ldw	r2,-8(fp)
 4001ad0:	1000010d 	sth	zero,4(r2)
}
 4001ad4:	0001883a 	nop
 4001ad8:	e037883a 	mov	sp,fp
 4001adc:	df000017 	ldw	fp,0(sp)
 4001ae0:	dec00104 	addi	sp,sp,4
 4001ae4:	f800283a 	ret

04001ae8 <_ZN9DNSClient9inet_atonEPKcR9IPAddress>:


int DNSClient::inet_aton(const char* address, IPAddress& result)
{
 4001ae8:	defffa04 	addi	sp,sp,-24
 4001aec:	dfc00515 	stw	ra,20(sp)
 4001af0:	df000415 	stw	fp,16(sp)
 4001af4:	df000404 	addi	fp,sp,16
 4001af8:	e13ffd15 	stw	r4,-12(fp)
 4001afc:	e17ffe15 	stw	r5,-8(fp)
 4001b00:	e1bfff15 	stw	r6,-4(fp)
	uint16_t acc = 0; // Accumulator
 4001b04:	e03ffc0d 	sth	zero,-16(fp)
	uint8_t dots = 0;
 4001b08:	e03ffc85 	stb	zero,-14(fp)

	while (*address) {
 4001b0c:	e0bffe17 	ldw	r2,-8(fp)
 4001b10:	10800003 	ldbu	r2,0(r2)
 4001b14:	10803fcc 	andi	r2,r2,255
 4001b18:	1080201c 	xori	r2,r2,128
 4001b1c:	10bfe004 	addi	r2,r2,-128
 4001b20:	10002d26 	beq	r2,zero,4001bd8 <_ZN9DNSClient9inet_atonEPKcR9IPAddress+0xf0>
		char c = *address++;
 4001b24:	e0bffe17 	ldw	r2,-8(fp)
 4001b28:	10c00044 	addi	r3,r2,1
 4001b2c:	e0fffe15 	stw	r3,-8(fp)
 4001b30:	10800003 	ldbu	r2,0(r2)
 4001b34:	e0bffcc5 	stb	r2,-13(fp)
		if (c >= '0' && c <= '9') {
 4001b38:	e0bffcc7 	ldb	r2,-13(fp)
 4001b3c:	10800c10 	cmplti	r2,r2,48
 4001b40:	10000f1e 	bne	r2,zero,4001b80 <_ZN9DNSClient9inet_atonEPKcR9IPAddress+0x98>
 4001b44:	e0bffcc7 	ldb	r2,-13(fp)
 4001b48:	10800e88 	cmpgei	r2,r2,58
 4001b4c:	10000c1e 	bne	r2,zero,4001b80 <_ZN9DNSClient9inet_atonEPKcR9IPAddress+0x98>
			acc = acc * 10 + (c - '0');
 4001b50:	e0bffc0b 	ldhu	r2,-16(fp)
 4001b54:	108002a4 	muli	r2,r2,10
 4001b58:	1007883a 	mov	r3,r2
 4001b5c:	e0bffcc7 	ldb	r2,-13(fp)
 4001b60:	1885883a 	add	r2,r3,r2
 4001b64:	10bff404 	addi	r2,r2,-48
 4001b68:	e0bffc0d 	sth	r2,-16(fp)
			if (acc > 255) {
 4001b6c:	e0bffc0b 	ldhu	r2,-16(fp)
 4001b70:	10804030 	cmpltui	r2,r2,256
 4001b74:	1000171e 	bne	r2,zero,4001bd4 <_ZN9DNSClient9inet_atonEPKcR9IPAddress+0xec>
				// Value out of [0..255] range
				return 0;
 4001b78:	0005883a 	mov	r2,zero
 4001b7c:	00002106 	br	4001c04 <_ZN9DNSClient9inet_atonEPKcR9IPAddress+0x11c>
			}
		} else if (c == '.') {
 4001b80:	e0bffcc7 	ldb	r2,-13(fp)
 4001b84:	10800b98 	cmpnei	r2,r2,46
 4001b88:	1000101e 	bne	r2,zero,4001bcc <_ZN9DNSClient9inet_atonEPKcR9IPAddress+0xe4>
			if (dots == 3) {
 4001b8c:	e0bffc83 	ldbu	r2,-14(fp)
 4001b90:	108000d8 	cmpnei	r2,r2,3
 4001b94:	1000021e 	bne	r2,zero,4001ba0 <_ZN9DNSClient9inet_atonEPKcR9IPAddress+0xb8>
				// Too much dots (there must be 3 dots)
				return 0;
 4001b98:	0005883a 	mov	r2,zero
 4001b9c:	00001906 	br	4001c04 <_ZN9DNSClient9inet_atonEPKcR9IPAddress+0x11c>
			}
			result[dots++] = acc;
 4001ba0:	e0bffc83 	ldbu	r2,-14(fp)
 4001ba4:	10c00044 	addi	r3,r2,1
 4001ba8:	e0fffc85 	stb	r3,-14(fp)
 4001bac:	10803fcc 	andi	r2,r2,255
 4001bb0:	100b883a 	mov	r5,r2
 4001bb4:	e13fff17 	ldw	r4,-4(fp)
 4001bb8:	40025c40 	call	40025c4 <_ZN9IPAddressixEi>
 4001bbc:	e0fffc0b 	ldhu	r3,-16(fp)
 4001bc0:	10c00005 	stb	r3,0(r2)
			acc = 0;
 4001bc4:	e03ffc0d 	sth	zero,-16(fp)
 4001bc8:	003fd006 	br	4001b0c <__alt_data_end+0xfc001b0c>
		} else {
			// Invalid char
			return 0;
 4001bcc:	0005883a 	mov	r2,zero
 4001bd0:	00000c06 	br	4001c04 <_ZN9DNSClient9inet_atonEPKcR9IPAddress+0x11c>
int DNSClient::inet_aton(const char* address, IPAddress& result)
{
	uint16_t acc = 0; // Accumulator
	uint8_t dots = 0;

	while (*address) {
 4001bd4:	003fcd06 	br	4001b0c <__alt_data_end+0xfc001b0c>
			// Invalid char
			return 0;
		}
	}

	if (dots != 3) {
 4001bd8:	e0bffc83 	ldbu	r2,-14(fp)
 4001bdc:	108000e0 	cmpeqi	r2,r2,3
 4001be0:	1000021e 	bne	r2,zero,4001bec <_ZN9DNSClient9inet_atonEPKcR9IPAddress+0x104>
		// Too few dots (there must be 3 dots)
		return 0;
 4001be4:	0005883a 	mov	r2,zero
 4001be8:	00000606 	br	4001c04 <_ZN9DNSClient9inet_atonEPKcR9IPAddress+0x11c>
	}
	result[3] = acc;
 4001bec:	014000c4 	movi	r5,3
 4001bf0:	e13fff17 	ldw	r4,-4(fp)
 4001bf4:	40025c40 	call	40025c4 <_ZN9IPAddressixEi>
 4001bf8:	e0fffc0b 	ldhu	r3,-16(fp)
 4001bfc:	10c00005 	stb	r3,0(r2)
	return 1;
 4001c00:	00800044 	movi	r2,1
}
 4001c04:	e037883a 	mov	sp,fp
 4001c08:	dfc00117 	ldw	ra,4(sp)
 4001c0c:	df000017 	ldw	fp,0(sp)
 4001c10:	dec00204 	addi	sp,sp,8
 4001c14:	f800283a 	ret

04001c18 <_ZN9DNSClient13getHostByNameEPKcR9IPAddresst>:

int DNSClient::getHostByName(const char* aHostname, IPAddress& aResult, uint16_t timeout)
{
 4001c18:	defff604 	addi	sp,sp,-40
 4001c1c:	dfc00915 	stw	ra,36(sp)
 4001c20:	df000815 	stw	fp,32(sp)
 4001c24:	dc000715 	stw	r16,28(sp)
 4001c28:	df000804 	addi	fp,sp,32
 4001c2c:	e13ffb15 	stw	r4,-20(fp)
 4001c30:	e17ffc15 	stw	r5,-16(fp)
 4001c34:	e1bffd15 	stw	r6,-12(fp)
 4001c38:	3805883a 	mov	r2,r7
 4001c3c:	e0bffe0d 	sth	r2,-8(fp)
	int ret = 0;
 4001c40:	e03ff815 	stw	zero,-32(fp)

	// See if it's a numeric IP address
	if (inet_aton(aHostname, aResult)) {
 4001c44:	e1bffd17 	ldw	r6,-12(fp)
 4001c48:	e17ffc17 	ldw	r5,-16(fp)
 4001c4c:	e13ffb17 	ldw	r4,-20(fp)
 4001c50:	4001ae80 	call	4001ae8 <_ZN9DNSClient9inet_atonEPKcR9IPAddress>
 4001c54:	1004c03a 	cmpne	r2,r2,zero
 4001c58:	10803fcc 	andi	r2,r2,255
 4001c5c:	10000226 	beq	r2,zero,4001c68 <_ZN9DNSClient13getHostByNameEPKcR9IPAddresst+0x50>
		// It is, our work here is done
		return 1;
 4001c60:	00800044 	movi	r2,1
 4001c64:	00004a06 	br	4001d90 <_ZN9DNSClient13getHostByNameEPKcR9IPAddresst+0x178>
	}

	// Check we've got a valid DNS server to use
	if (iDNSServer == INADDR_NONE) {
 4001c68:	e0bffb17 	ldw	r2,-20(fp)
 4001c6c:	d17ca704 	addi	r5,gp,-3428
 4001c70:	1009883a 	mov	r4,r2
 4001c74:	4001a200 	call	4001a20 <_ZNK9IPAddresseqERKS_>
 4001c78:	10803fcc 	andi	r2,r2,255
 4001c7c:	10000226 	beq	r2,zero,4001c88 <_ZN9DNSClient13getHostByNameEPKcR9IPAddresst+0x70>
		return INVALID_SERVER;
 4001c80:	00bfff84 	movi	r2,-2
 4001c84:	00004206 	br	4001d90 <_ZN9DNSClient13getHostByNameEPKcR9IPAddresst+0x178>
	}
	
	// Find a socket to use
	if (iUdp.begin(1024+(millis() & 0xF)) == 1) {
 4001c88:	e0bffb17 	ldw	r2,-20(fp)
 4001c8c:	14000204 	addi	r16,r2,8
 4001c90:	40075380 	call	4007538 <_Z6millisv>
 4001c94:	108003cc 	andi	r2,r2,15
 4001c98:	10810004 	addi	r2,r2,1024
 4001c9c:	10bfffcc 	andi	r2,r2,65535
 4001ca0:	100b883a 	mov	r5,r2
 4001ca4:	8009883a 	mov	r4,r16
 4001ca8:	4004d980 	call	4004d98 <_ZN11EthernetUDP5beginEt>
 4001cac:	10803fcc 	andi	r2,r2,255
 4001cb0:	10800060 	cmpeqi	r2,r2,1
 4001cb4:	10803fcc 	andi	r2,r2,255
 4001cb8:	10003426 	beq	r2,zero,4001d8c <_ZN9DNSClient13getHostByNameEPKcR9IPAddresst+0x174>
		// Try up to three times
		int retries = 0;
 4001cbc:	e03ffa15 	stw	zero,-24(fp)
		// while ((retries < 3) && (ret <= 0)) {
		// Send DNS request
		ret = iUdp.beginPacket(iDNSServer, DNS_PORT);
 4001cc0:	e0bffb17 	ldw	r2,-20(fp)
 4001cc4:	10c00204 	addi	r3,r2,8
 4001cc8:	e0bffb17 	ldw	r2,-20(fp)
 4001ccc:	01800d44 	movi	r6,53
 4001cd0:	11400017 	ldw	r5,0(r2)
 4001cd4:	1809883a 	mov	r4,r3
 4001cd8:	4004f900 	call	4004f90 <_ZN11EthernetUDP11beginPacketE9IPAddresst>
 4001cdc:	e0bff815 	stw	r2,-32(fp)
		if (ret != 0) {
 4001ce0:	e0bff817 	ldw	r2,-32(fp)
 4001ce4:	10002226 	beq	r2,zero,4001d70 <_ZN9DNSClient13getHostByNameEPKcR9IPAddresst+0x158>
			// Now output the request data
			ret = BuildRequest(aHostname);
 4001ce8:	e17ffc17 	ldw	r5,-16(fp)
 4001cec:	e13ffb17 	ldw	r4,-20(fp)
 4001cf0:	4001da80 	call	4001da8 <_ZN9DNSClient12BuildRequestEPKc>
 4001cf4:	10bfffcc 	andi	r2,r2,65535
 4001cf8:	e0bff815 	stw	r2,-32(fp)
			if (ret != 0) {
 4001cfc:	e0bff817 	ldw	r2,-32(fp)
 4001d00:	10001b26 	beq	r2,zero,4001d70 <_ZN9DNSClient13getHostByNameEPKcR9IPAddresst+0x158>
				// And finally send the request
				ret = iUdp.endPacket();
 4001d04:	e0bffb17 	ldw	r2,-20(fp)
 4001d08:	10800204 	addi	r2,r2,8
 4001d0c:	1009883a 	mov	r4,r2
 4001d10:	40050100 	call	4005010 <_ZN11EthernetUDP9endPacketEv>
 4001d14:	e0bff815 	stw	r2,-32(fp)
				if (ret != 0) {
 4001d18:	e0bff817 	ldw	r2,-32(fp)
 4001d1c:	10001426 	beq	r2,zero,4001d70 <_ZN9DNSClient13getHostByNameEPKcR9IPAddresst+0x158>
					// Now wait for a response
					int wait_retries = 0;
 4001d20:	e03ff915 	stw	zero,-28(fp)
					ret = TIMED_OUT;
 4001d24:	00bfffc4 	movi	r2,-1
 4001d28:	e0bff815 	stw	r2,-32(fp)
					while ((wait_retries < 3) && (ret == TIMED_OUT)) {
 4001d2c:	e0bff917 	ldw	r2,-28(fp)
 4001d30:	108000c8 	cmpgei	r2,r2,3
 4001d34:	10000e1e 	bne	r2,zero,4001d70 <_ZN9DNSClient13getHostByNameEPKcR9IPAddresst+0x158>
 4001d38:	e0bff817 	ldw	r2,-32(fp)
 4001d3c:	10bfffd8 	cmpnei	r2,r2,-1
 4001d40:	10000b1e 	bne	r2,zero,4001d70 <_ZN9DNSClient13getHostByNameEPKcR9IPAddresst+0x158>
						ret = ProcessResponse(timeout, aResult);
 4001d44:	e0bffe0b 	ldhu	r2,-8(fp)
 4001d48:	e1bffd17 	ldw	r6,-12(fp)
 4001d4c:	100b883a 	mov	r5,r2
 4001d50:	e13ffb17 	ldw	r4,-20(fp)
 4001d54:	4001ff00 	call	4001ff0 <_ZN9DNSClient15ProcessResponseEtR9IPAddress>
 4001d58:	10bfffcc 	andi	r2,r2,65535
 4001d5c:	e0bff815 	stw	r2,-32(fp)
						wait_retries++;
 4001d60:	e0bff917 	ldw	r2,-28(fp)
 4001d64:	10800044 	addi	r2,r2,1
 4001d68:	e0bff915 	stw	r2,-28(fp)
				ret = iUdp.endPacket();
				if (ret != 0) {
					// Now wait for a response
					int wait_retries = 0;
					ret = TIMED_OUT;
					while ((wait_retries < 3) && (ret == TIMED_OUT)) {
 4001d6c:	003fef06 	br	4001d2c <__alt_data_end+0xfc001d2c>
						wait_retries++;
					}
				}
			}
		}
		retries++;
 4001d70:	e0bffa17 	ldw	r2,-24(fp)
 4001d74:	10800044 	addi	r2,r2,1
 4001d78:	e0bffa15 	stw	r2,-24(fp)
		//}

		// We're done with the socket now
		iUdp.stop();
 4001d7c:	e0bffb17 	ldw	r2,-20(fp)
 4001d80:	10800204 	addi	r2,r2,8
 4001d84:	1009883a 	mov	r4,r2
 4001d88:	4004e6c0 	call	4004e6c <_ZN11EthernetUDP4stopEv>
	}

	return ret;
 4001d8c:	e0bff817 	ldw	r2,-32(fp)
}
 4001d90:	e6ffff04 	addi	sp,fp,-4
 4001d94:	dfc00217 	ldw	ra,8(sp)
 4001d98:	df000117 	ldw	fp,4(sp)
 4001d9c:	dc000017 	ldw	r16,0(sp)
 4001da0:	dec00304 	addi	sp,sp,12
 4001da4:	f800283a 	ret

04001da8 <_ZN9DNSClient12BuildRequestEPKc>:

uint16_t DNSClient::BuildRequest(const char* aName)
{
 4001da8:	defff904 	addi	sp,sp,-28
 4001dac:	dfc00615 	stw	ra,24(sp)
 4001db0:	df000515 	stw	fp,20(sp)
 4001db4:	df000504 	addi	fp,sp,20
 4001db8:	e13ffe15 	stw	r4,-8(fp)
 4001dbc:	e17fff15 	stw	r5,-4(fp)
	//    +--+--+--+--+--+--+--+--+--+--+--+--+--+--+--+--+
	//    |                    ARCOUNT                    |
	//    +--+--+--+--+--+--+--+--+--+--+--+--+--+--+--+--+
	// As we only support one request at a time at present, we can simplify
	// some of this header
	iRequestId = millis(); // generate a random ID
 4001dc0:	40075380 	call	4007538 <_Z6millisv>
 4001dc4:	1007883a 	mov	r3,r2
 4001dc8:	e0bffe17 	ldw	r2,-8(fp)
 4001dcc:	10c0010d 	sth	r3,4(r2)
	uint16_t twoByteBuffer;

	// FIXME We should also check that there's enough space available to write to, rather
	// FIXME than assume there's enough space (as the code does at present)
	iUdp.write((uint8_t*)&iRequestId, sizeof(iRequestId));
 4001dd0:	e0bffe17 	ldw	r2,-8(fp)
 4001dd4:	10c00204 	addi	r3,r2,8
 4001dd8:	e0bffe17 	ldw	r2,-8(fp)
 4001ddc:	10800104 	addi	r2,r2,4
 4001de0:	01800084 	movi	r6,2
 4001de4:	100b883a 	mov	r5,r2
 4001de8:	1809883a 	mov	r4,r3
 4001dec:	400507c0 	call	400507c <_ZN11EthernetUDP5writeEPKhj>

	twoByteBuffer = htons(QUERY_FLAG | OPCODE_STANDARD_QUERY | RECURSION_DESIRED_FLAG);
 4001df0:	00800044 	movi	r2,1
 4001df4:	e0bffd0d 	sth	r2,-12(fp)
	iUdp.write((uint8_t*)&twoByteBuffer, sizeof(twoByteBuffer));
 4001df8:	e0bffe17 	ldw	r2,-8(fp)
 4001dfc:	10800204 	addi	r2,r2,8
 4001e00:	e0fffd04 	addi	r3,fp,-12
 4001e04:	01800084 	movi	r6,2
 4001e08:	180b883a 	mov	r5,r3
 4001e0c:	1009883a 	mov	r4,r2
 4001e10:	400507c0 	call	400507c <_ZN11EthernetUDP5writeEPKhj>

	twoByteBuffer = htons(1);  // One question record
 4001e14:	00804004 	movi	r2,256
 4001e18:	e0bffd0d 	sth	r2,-12(fp)
	iUdp.write((uint8_t*)&twoByteBuffer, sizeof(twoByteBuffer));
 4001e1c:	e0bffe17 	ldw	r2,-8(fp)
 4001e20:	10800204 	addi	r2,r2,8
 4001e24:	e0fffd04 	addi	r3,fp,-12
 4001e28:	01800084 	movi	r6,2
 4001e2c:	180b883a 	mov	r5,r3
 4001e30:	1009883a 	mov	r4,r2
 4001e34:	400507c0 	call	400507c <_ZN11EthernetUDP5writeEPKhj>

	twoByteBuffer = 0;  // Zero answer records
 4001e38:	e03ffd0d 	sth	zero,-12(fp)
	iUdp.write((uint8_t*)&twoByteBuffer, sizeof(twoByteBuffer));
 4001e3c:	e0bffe17 	ldw	r2,-8(fp)
 4001e40:	10800204 	addi	r2,r2,8
 4001e44:	e0fffd04 	addi	r3,fp,-12
 4001e48:	01800084 	movi	r6,2
 4001e4c:	180b883a 	mov	r5,r3
 4001e50:	1009883a 	mov	r4,r2
 4001e54:	400507c0 	call	400507c <_ZN11EthernetUDP5writeEPKhj>

	iUdp.write((uint8_t*)&twoByteBuffer, sizeof(twoByteBuffer));
 4001e58:	e0bffe17 	ldw	r2,-8(fp)
 4001e5c:	10800204 	addi	r2,r2,8
 4001e60:	e0fffd04 	addi	r3,fp,-12
 4001e64:	01800084 	movi	r6,2
 4001e68:	180b883a 	mov	r5,r3
 4001e6c:	1009883a 	mov	r4,r2
 4001e70:	400507c0 	call	400507c <_ZN11EthernetUDP5writeEPKhj>
	// and zero additional records
	iUdp.write((uint8_t*)&twoByteBuffer, sizeof(twoByteBuffer));
 4001e74:	e0bffe17 	ldw	r2,-8(fp)
 4001e78:	10800204 	addi	r2,r2,8
 4001e7c:	e0fffd04 	addi	r3,fp,-12
 4001e80:	01800084 	movi	r6,2
 4001e84:	180b883a 	mov	r5,r3
 4001e88:	1009883a 	mov	r4,r2
 4001e8c:	400507c0 	call	400507c <_ZN11EthernetUDP5writeEPKhj>

	// Build question
	const char* start =aName;
 4001e90:	e0bfff17 	ldw	r2,-4(fp)
 4001e94:	e0bffb15 	stw	r2,-20(fp)
	const char* end =start;
 4001e98:	e0bffb17 	ldw	r2,-20(fp)
 4001e9c:	e0bffc15 	stw	r2,-16(fp)
	uint8_t len;
	// Run through the name being requested
	while (*end) {
 4001ea0:	e0bffc17 	ldw	r2,-16(fp)
 4001ea4:	10800003 	ldbu	r2,0(r2)
 4001ea8:	10803fcc 	andi	r2,r2,255
 4001eac:	1080201c 	xori	r2,r2,128
 4001eb0:	10bfe004 	addi	r2,r2,-128
 4001eb4:	10002e26 	beq	r2,zero,4001f70 <_ZN9DNSClient12BuildRequestEPKc+0x1c8>
		// Find out how long this section of the name is
		end = start;
 4001eb8:	e0bffb17 	ldw	r2,-20(fp)
 4001ebc:	e0bffc15 	stw	r2,-16(fp)
		while (*end && (*end != '.') ) {
 4001ec0:	e0bffc17 	ldw	r2,-16(fp)
 4001ec4:	10800003 	ldbu	r2,0(r2)
 4001ec8:	10803fcc 	andi	r2,r2,255
 4001ecc:	1080201c 	xori	r2,r2,128
 4001ed0:	10bfe004 	addi	r2,r2,-128
 4001ed4:	10000b26 	beq	r2,zero,4001f04 <_ZN9DNSClient12BuildRequestEPKc+0x15c>
 4001ed8:	e0bffc17 	ldw	r2,-16(fp)
 4001edc:	10800003 	ldbu	r2,0(r2)
 4001ee0:	10803fcc 	andi	r2,r2,255
 4001ee4:	1080201c 	xori	r2,r2,128
 4001ee8:	10bfe004 	addi	r2,r2,-128
 4001eec:	10800ba0 	cmpeqi	r2,r2,46
 4001ef0:	1000041e 	bne	r2,zero,4001f04 <_ZN9DNSClient12BuildRequestEPKc+0x15c>
			end++;
 4001ef4:	e0bffc17 	ldw	r2,-16(fp)
 4001ef8:	10800044 	addi	r2,r2,1
 4001efc:	e0bffc15 	stw	r2,-16(fp)
	uint8_t len;
	// Run through the name being requested
	while (*end) {
		// Find out how long this section of the name is
		end = start;
		while (*end && (*end != '.') ) {
 4001f00:	003fef06 	br	4001ec0 <__alt_data_end+0xfc001ec0>
			end++;
		}

		if (end-start > 0) {
 4001f04:	e0fffc17 	ldw	r3,-16(fp)
 4001f08:	e0bffb17 	ldw	r2,-20(fp)
 4001f0c:	1885c83a 	sub	r2,r3,r2
 4001f10:	0080130e 	bge	zero,r2,4001f60 <_ZN9DNSClient12BuildRequestEPKc+0x1b8>
			// Write out the size of this section
			len = end-start;
 4001f14:	e0fffc17 	ldw	r3,-16(fp)
 4001f18:	e0bffb17 	ldw	r2,-20(fp)
 4001f1c:	1885c83a 	sub	r2,r3,r2
 4001f20:	e0bffd85 	stb	r2,-10(fp)
			iUdp.write(&len, sizeof(len));
 4001f24:	e0bffe17 	ldw	r2,-8(fp)
 4001f28:	10800204 	addi	r2,r2,8
 4001f2c:	e0fffd84 	addi	r3,fp,-10
 4001f30:	01800044 	movi	r6,1
 4001f34:	180b883a 	mov	r5,r3
 4001f38:	1009883a 	mov	r4,r2
 4001f3c:	400507c0 	call	400507c <_ZN11EthernetUDP5writeEPKhj>
			// And then write out the section
			iUdp.write((uint8_t*)start, end-start);
 4001f40:	e0bffe17 	ldw	r2,-8(fp)
 4001f44:	11000204 	addi	r4,r2,8
 4001f48:	e0fffc17 	ldw	r3,-16(fp)
 4001f4c:	e0bffb17 	ldw	r2,-20(fp)
 4001f50:	1885c83a 	sub	r2,r3,r2
 4001f54:	100d883a 	mov	r6,r2
 4001f58:	e17ffb17 	ldw	r5,-20(fp)
 4001f5c:	400507c0 	call	400507c <_ZN11EthernetUDP5writeEPKhj>
		}
		start = end+1;
 4001f60:	e0bffc17 	ldw	r2,-16(fp)
 4001f64:	10800044 	addi	r2,r2,1
 4001f68:	e0bffb15 	stw	r2,-20(fp)
	// Build question
	const char* start =aName;
	const char* end =start;
	uint8_t len;
	// Run through the name being requested
	while (*end) {
 4001f6c:	003fcc06 	br	4001ea0 <__alt_data_end+0xfc001ea0>
		start = end+1;
	}

	// We've got to the end of the question name, so
	// terminate it with a zero-length section
	len = 0;
 4001f70:	e03ffd85 	stb	zero,-10(fp)
	iUdp.write(&len, sizeof(len));
 4001f74:	e0bffe17 	ldw	r2,-8(fp)
 4001f78:	10800204 	addi	r2,r2,8
 4001f7c:	e0fffd84 	addi	r3,fp,-10
 4001f80:	01800044 	movi	r6,1
 4001f84:	180b883a 	mov	r5,r3
 4001f88:	1009883a 	mov	r4,r2
 4001f8c:	400507c0 	call	400507c <_ZN11EthernetUDP5writeEPKhj>
	// Finally the type and class of question
	twoByteBuffer = htons(TYPE_A);
 4001f90:	00804004 	movi	r2,256
 4001f94:	e0bffd0d 	sth	r2,-12(fp)
	iUdp.write((uint8_t*)&twoByteBuffer, sizeof(twoByteBuffer));
 4001f98:	e0bffe17 	ldw	r2,-8(fp)
 4001f9c:	10800204 	addi	r2,r2,8
 4001fa0:	e0fffd04 	addi	r3,fp,-12
 4001fa4:	01800084 	movi	r6,2
 4001fa8:	180b883a 	mov	r5,r3
 4001fac:	1009883a 	mov	r4,r2
 4001fb0:	400507c0 	call	400507c <_ZN11EthernetUDP5writeEPKhj>

	twoByteBuffer = htons(CLASS_IN);  // Internet class of question
 4001fb4:	00804004 	movi	r2,256
 4001fb8:	e0bffd0d 	sth	r2,-12(fp)
	iUdp.write((uint8_t*)&twoByteBuffer, sizeof(twoByteBuffer));
 4001fbc:	e0bffe17 	ldw	r2,-8(fp)
 4001fc0:	10800204 	addi	r2,r2,8
 4001fc4:	e0fffd04 	addi	r3,fp,-12
 4001fc8:	01800084 	movi	r6,2
 4001fcc:	180b883a 	mov	r5,r3
 4001fd0:	1009883a 	mov	r4,r2
 4001fd4:	400507c0 	call	400507c <_ZN11EthernetUDP5writeEPKhj>
	// Success!  Everything buffered okay
	return 1;
 4001fd8:	00800044 	movi	r2,1
}
 4001fdc:	e037883a 	mov	sp,fp
 4001fe0:	dfc00117 	ldw	ra,4(sp)
 4001fe4:	df000017 	ldw	fp,0(sp)
 4001fe8:	dec00204 	addi	sp,sp,8
 4001fec:	f800283a 	ret

04001ff0 <_ZN9DNSClient15ProcessResponseEtR9IPAddress>:


uint16_t DNSClient::ProcessResponse(uint16_t aTimeout, IPAddress& aAddress)
{
 4001ff0:	defff104 	addi	sp,sp,-60
 4001ff4:	dfc00e15 	stw	ra,56(sp)
 4001ff8:	df000d15 	stw	fp,52(sp)
 4001ffc:	dc000c15 	stw	r16,48(sp)
 4002000:	df000d04 	addi	fp,sp,52
 4002004:	e13ffc15 	stw	r4,-16(fp)
 4002008:	2805883a 	mov	r2,r5
 400200c:	e1bffe15 	stw	r6,-8(fp)
 4002010:	e0bffd0d 	sth	r2,-12(fp)
	uint32_t startTime = millis();
 4002014:	40075380 	call	4007538 <_Z6millisv>
 4002018:	e0bff415 	stw	r2,-48(fp)

	// Wait for a response packet
	while (iUdp.parsePacket() <= 0) {
 400201c:	e0bffc17 	ldw	r2,-16(fp)
 4002020:	10800204 	addi	r2,r2,8
 4002024:	1009883a 	mov	r4,r2
 4002028:	40051040 	call	4005104 <_ZN11EthernetUDP11parsePacketEv>
 400202c:	0084403a 	cmpge	r2,zero,r2
 4002030:	10803fcc 	andi	r2,r2,255
 4002034:	10000d26 	beq	r2,zero,400206c <_ZN9DNSClient15ProcessResponseEtR9IPAddress+0x7c>
		if ((millis() - startTime) > aTimeout) {
 4002038:	40075380 	call	4007538 <_Z6millisv>
 400203c:	1007883a 	mov	r3,r2
 4002040:	e0bff417 	ldw	r2,-48(fp)
 4002044:	1885c83a 	sub	r2,r3,r2
 4002048:	e0fffd0b 	ldhu	r3,-12(fp)
 400204c:	1885803a 	cmpltu	r2,r3,r2
 4002050:	10803fcc 	andi	r2,r2,255
 4002054:	10000226 	beq	r2,zero,4002060 <_ZN9DNSClient15ProcessResponseEtR9IPAddress+0x70>
			return TIMED_OUT;
 4002058:	00bfffc4 	movi	r2,-1
 400205c:	00011c06 	br	40024d0 <_ZN9DNSClient15ProcessResponseEtR9IPAddress+0x4e0>
		}
		delay(50);
 4002060:	01000c84 	movi	r4,50
 4002064:	40074fc0 	call	40074fc <_Z5delayj>
uint16_t DNSClient::ProcessResponse(uint16_t aTimeout, IPAddress& aAddress)
{
	uint32_t startTime = millis();

	// Wait for a response packet
	while (iUdp.parsePacket() <= 0) {
 4002068:	003fec06 	br	400201c <__alt_data_end+0xfc00201c>
		uint8_t  byte[DNS_HEADER_SIZE]; // Enough space to reuse for the DNS header
		uint16_t word[DNS_HEADER_SIZE/2];
	} header;

	// Check that it's a response from the right server and the right port
	if ( (iDNSServer != iUdp.remoteIP()) || (iUdp.remotePort() != DNS_PORT) ) {
 400206c:	e0bffc17 	ldw	r2,-16(fp)
 4002070:	1009883a 	mov	r4,r2
 4002074:	400259c0 	call	400259c <_ZNK9IPAddresscvmEv>
 4002078:	1021883a 	mov	r16,r2
 400207c:	e0bffc17 	ldw	r2,-16(fp)
 4002080:	10800204 	addi	r2,r2,8
 4002084:	1009883a 	mov	r4,r2
 4002088:	4001a580 	call	4001a58 <_ZN11EthernetUDP8remoteIPEv>
 400208c:	e0bff615 	stw	r2,-40(fp)
 4002090:	e0bff604 	addi	r2,fp,-40
 4002094:	1009883a 	mov	r4,r2
 4002098:	400259c0 	call	400259c <_ZNK9IPAddresscvmEv>
 400209c:	8080071e 	bne	r16,r2,40020bc <_ZN9DNSClient15ProcessResponseEtR9IPAddress+0xcc>
 40020a0:	e0bffc17 	ldw	r2,-16(fp)
 40020a4:	10800204 	addi	r2,r2,8
 40020a8:	1009883a 	mov	r4,r2
 40020ac:	4001a800 	call	4001a80 <_ZN11EthernetUDP10remotePortEv>
 40020b0:	10bfffcc 	andi	r2,r2,65535
 40020b4:	10800d60 	cmpeqi	r2,r2,53
 40020b8:	1000021e 	bne	r2,zero,40020c4 <_ZN9DNSClient15ProcessResponseEtR9IPAddress+0xd4>
 40020bc:	00800044 	movi	r2,1
 40020c0:	00000106 	br	40020c8 <_ZN9DNSClient15ProcessResponseEtR9IPAddress+0xd8>
 40020c4:	0005883a 	mov	r2,zero
 40020c8:	10803fcc 	andi	r2,r2,255
 40020cc:	10000226 	beq	r2,zero,40020d8 <_ZN9DNSClient15ProcessResponseEtR9IPAddress+0xe8>
		// It's not from who we expected
		return INVALID_SERVER;
 40020d0:	00bfff84 	movi	r2,-2
 40020d4:	0000fe06 	br	40024d0 <_ZN9DNSClient15ProcessResponseEtR9IPAddress+0x4e0>
	}

	// Read through the rest of the response
	if (iUdp.available() < DNS_HEADER_SIZE) {
 40020d8:	e0bffc17 	ldw	r2,-16(fp)
 40020dc:	10800204 	addi	r2,r2,8
 40020e0:	1009883a 	mov	r4,r2
 40020e4:	4004e400 	call	4004e40 <_ZN11EthernetUDP9availableEv>
 40020e8:	10800310 	cmplti	r2,r2,12
 40020ec:	10803fcc 	andi	r2,r2,255
 40020f0:	10000226 	beq	r2,zero,40020fc <_ZN9DNSClient15ProcessResponseEtR9IPAddress+0x10c>
		return TRUNCATED;
 40020f4:	00bfff44 	movi	r2,-3
 40020f8:	0000f506 	br	40024d0 <_ZN9DNSClient15ProcessResponseEtR9IPAddress+0x4e0>
	}
	iUdp.read(header.byte, DNS_HEADER_SIZE);
 40020fc:	e0bffc17 	ldw	r2,-16(fp)
 4002100:	10800204 	addi	r2,r2,8
 4002104:	e0fff704 	addi	r3,fp,-36
 4002108:	01800304 	movi	r6,12
 400210c:	180b883a 	mov	r5,r3
 4002110:	1009883a 	mov	r4,r2
 4002114:	40052cc0 	call	40052cc <_ZN11EthernetUDP4readEPhj>

	uint16_t header_flags = htons(header.word[1]);
 4002118:	e0bff78b 	ldhu	r2,-34(fp)
 400211c:	10bfffcc 	andi	r2,r2,65535
 4002120:	1004923a 	slli	r2,r2,8
 4002124:	1007883a 	mov	r3,r2
 4002128:	e0bff78b 	ldhu	r2,-34(fp)
 400212c:	10bfffcc 	andi	r2,r2,65535
 4002130:	1004d23a 	srli	r2,r2,8
 4002134:	1884b03a 	or	r2,r3,r2
 4002138:	e0bffa0d 	sth	r2,-24(fp)
	// Check that it's a response to this request
	if ((iRequestId != (header.word[0])) ||
 400213c:	e0bffc17 	ldw	r2,-16(fp)
 4002140:	10c0010b 	ldhu	r3,4(r2)
 4002144:	e0bff70b 	ldhu	r2,-36(fp)
 4002148:	18ffffcc 	andi	r3,r3,65535
 400214c:	10bfffcc 	andi	r2,r2,65535
 4002150:	1880051e 	bne	r3,r2,4002168 <_ZN9DNSClient15ProcessResponseEtR9IPAddress+0x178>
	  ((header_flags & QUERY_RESPONSE_MASK) != (uint16_t)RESPONSE_FLAG) ) {
 4002154:	e0bffa0b 	ldhu	r2,-24(fp)
	}
	iUdp.read(header.byte, DNS_HEADER_SIZE);

	uint16_t header_flags = htons(header.word[1]);
	// Check that it's a response to this request
	if ((iRequestId != (header.word[0])) ||
 4002158:	10bfffcc 	andi	r2,r2,65535
 400215c:	10a0001c 	xori	r2,r2,32768
 4002160:	10a00004 	addi	r2,r2,-32768
 4002164:	10000616 	blt	r2,zero,4002180 <_ZN9DNSClient15ProcessResponseEtR9IPAddress+0x190>
	  ((header_flags & QUERY_RESPONSE_MASK) != (uint16_t)RESPONSE_FLAG) ) {
		// Mark the entire packet as read
		iUdp.flush(); // FIXME
 4002168:	e0bffc17 	ldw	r2,-16(fp)
 400216c:	10800204 	addi	r2,r2,8
 4002170:	1009883a 	mov	r4,r2
 4002174:	40054240 	call	4005424 <_ZN11EthernetUDP5flushEv>
		return INVALID_RESPONSE;
 4002178:	00bfff04 	movi	r2,-4
 400217c:	0000d406 	br	40024d0 <_ZN9DNSClient15ProcessResponseEtR9IPAddress+0x4e0>
	}
	// Check for any errors in the response (or in our request)
	// although we don't do anything to get round these
	if ( (header_flags & TRUNCATION_FLAG) || (header_flags & RESP_MASK) ) {
 4002180:	e0bffa0b 	ldhu	r2,-24(fp)
 4002184:	10bfffcc 	andi	r2,r2,65535
 4002188:	1080800c 	andi	r2,r2,512
 400218c:	1000041e 	bne	r2,zero,40021a0 <_ZN9DNSClient15ProcessResponseEtR9IPAddress+0x1b0>
 4002190:	e0bffa0b 	ldhu	r2,-24(fp)
 4002194:	10bfffcc 	andi	r2,r2,65535
 4002198:	108003cc 	andi	r2,r2,15
 400219c:	10000626 	beq	r2,zero,40021b8 <_ZN9DNSClient15ProcessResponseEtR9IPAddress+0x1c8>
		// Mark the entire packet as read
		iUdp.flush(); // FIXME
 40021a0:	e0bffc17 	ldw	r2,-16(fp)
 40021a4:	10800204 	addi	r2,r2,8
 40021a8:	1009883a 	mov	r4,r2
 40021ac:	40054240 	call	4005424 <_ZN11EthernetUDP5flushEv>
		return -5; //INVALID_RESPONSE;
 40021b0:	00bffec4 	movi	r2,-5
 40021b4:	0000c606 	br	40024d0 <_ZN9DNSClient15ProcessResponseEtR9IPAddress+0x4e0>
	}

	// And make sure we've got (at least) one answer
	uint16_t answerCount = htons(header.word[3]);
 40021b8:	e0bff88b 	ldhu	r2,-30(fp)
 40021bc:	10bfffcc 	andi	r2,r2,65535
 40021c0:	1004923a 	slli	r2,r2,8
 40021c4:	1007883a 	mov	r3,r2
 40021c8:	e0bff88b 	ldhu	r2,-30(fp)
 40021cc:	10bfffcc 	andi	r2,r2,65535
 40021d0:	1004d23a 	srli	r2,r2,8
 40021d4:	1884b03a 	or	r2,r3,r2
 40021d8:	e0bff50d 	sth	r2,-44(fp)
	if (answerCount == 0) {
 40021dc:	e0bff50b 	ldhu	r2,-44(fp)
 40021e0:	1000061e 	bne	r2,zero,40021fc <_ZN9DNSClient15ProcessResponseEtR9IPAddress+0x20c>
		// Mark the entire packet as read
		iUdp.flush(); // FIXME
 40021e4:	e0bffc17 	ldw	r2,-16(fp)
 40021e8:	10800204 	addi	r2,r2,8
 40021ec:	1009883a 	mov	r4,r2
 40021f0:	40054240 	call	4005424 <_ZN11EthernetUDP5flushEv>
		return -6; //INVALID_RESPONSE;
 40021f4:	00bffe84 	movi	r2,-6
 40021f8:	0000b506 	br	40024d0 <_ZN9DNSClient15ProcessResponseEtR9IPAddress+0x4e0>
	}

	// Skip over any questions
	for (uint16_t i=0; i < htons(header.word[2]); i++) {
 40021fc:	e03ff30d 	sth	zero,-52(fp)
 4002200:	e0fff30b 	ldhu	r3,-52(fp)
 4002204:	e0bff80b 	ldhu	r2,-32(fp)
 4002208:	10bfffcc 	andi	r2,r2,65535
 400220c:	1004923a 	slli	r2,r2,8
 4002210:	113fffcc 	andi	r4,r2,65535
 4002214:	e0bff80b 	ldhu	r2,-32(fp)
 4002218:	10bfffcc 	andi	r2,r2,65535
 400221c:	1004d23a 	srli	r2,r2,8
 4002220:	10bfffcc 	andi	r2,r2,65535
 4002224:	2084b03a 	or	r2,r4,r2
 4002228:	1880200e 	bge	r3,r2,40022ac <_ZN9DNSClient15ProcessResponseEtR9IPAddress+0x2bc>
		// Skip over the name
		uint8_t len;
		do {
			iUdp.read(&len, sizeof(len));
 400222c:	e0bffc17 	ldw	r2,-16(fp)
 4002230:	10800204 	addi	r2,r2,8
 4002234:	e0fffa84 	addi	r3,fp,-22
 4002238:	01800044 	movi	r6,1
 400223c:	180b883a 	mov	r5,r3
 4002240:	1009883a 	mov	r4,r2
 4002244:	40052cc0 	call	40052cc <_ZN11EthernetUDP4readEPhj>
			if (len > 0) {
 4002248:	e0bffa83 	ldbu	r2,-22(fp)
 400224c:	10803fcc 	andi	r2,r2,255
 4002250:	10000826 	beq	r2,zero,4002274 <_ZN9DNSClient15ProcessResponseEtR9IPAddress+0x284>
				// Don't need to actually read the data out for the string, just
				// advance ptr to beyond it
				iUdp.read((uint8_t *)NULL, (size_t)len);
 4002254:	e0bffc17 	ldw	r2,-16(fp)
 4002258:	10800204 	addi	r2,r2,8
 400225c:	e0fffa83 	ldbu	r3,-22(fp)
 4002260:	18c03fcc 	andi	r3,r3,255
 4002264:	180d883a 	mov	r6,r3
 4002268:	000b883a 	mov	r5,zero
 400226c:	1009883a 	mov	r4,r2
 4002270:	40052cc0 	call	40052cc <_ZN11EthernetUDP4readEPhj>
			}
		} while (len != 0);
 4002274:	e0bffa83 	ldbu	r2,-22(fp)
 4002278:	10803fcc 	andi	r2,r2,255
 400227c:	10000126 	beq	r2,zero,4002284 <_ZN9DNSClient15ProcessResponseEtR9IPAddress+0x294>

	// Skip over any questions
	for (uint16_t i=0; i < htons(header.word[2]); i++) {
		// Skip over the name
		uint8_t len;
		do {
 4002280:	003fea06 	br	400222c <__alt_data_end+0xfc00222c>
				iUdp.read((uint8_t *)NULL, (size_t)len);
			}
		} while (len != 0);

		// Now jump over the type and class
		iUdp.read((uint8_t *)NULL, 4);
 4002284:	e0bffc17 	ldw	r2,-16(fp)
 4002288:	10800204 	addi	r2,r2,8
 400228c:	01800104 	movi	r6,4
 4002290:	000b883a 	mov	r5,zero
 4002294:	1009883a 	mov	r4,r2
 4002298:	40052cc0 	call	40052cc <_ZN11EthernetUDP4readEPhj>
		iUdp.flush(); // FIXME
		return -6; //INVALID_RESPONSE;
	}

	// Skip over any questions
	for (uint16_t i=0; i < htons(header.word[2]); i++) {
 400229c:	e0bff30b 	ldhu	r2,-52(fp)
 40022a0:	10800044 	addi	r2,r2,1
 40022a4:	e0bff30d 	sth	r2,-52(fp)
 40022a8:	003fd506 	br	4002200 <__alt_data_end+0xfc002200>
	// Now we're up to the bit we're interested in, the answer
	// There might be more than one answer (although we'll just use the first
	// type A answer) and some authority and additional resource records but
	// we're going to ignore all of them.

	for (uint16_t i=0; i < answerCount; i++) {
 40022ac:	e03ff38d 	sth	zero,-50(fp)
 40022b0:	e0fff38b 	ldhu	r3,-50(fp)
 40022b4:	e0bff50b 	ldhu	r2,-44(fp)
 40022b8:	1880802e 	bgeu	r3,r2,40024bc <_ZN9DNSClient15ProcessResponseEtR9IPAddress+0x4cc>
		// Skip the name
		uint8_t len;
		do {
			iUdp.read(&len, sizeof(len));
 40022bc:	e0bffc17 	ldw	r2,-16(fp)
 40022c0:	10800204 	addi	r2,r2,8
 40022c4:	e0fffac4 	addi	r3,fp,-21
 40022c8:	01800044 	movi	r6,1
 40022cc:	180b883a 	mov	r5,r3
 40022d0:	1009883a 	mov	r4,r2
 40022d4:	40052cc0 	call	40052cc <_ZN11EthernetUDP4readEPhj>
			if ((len & LABEL_COMPRESSION_MASK) == 0) {
 40022d8:	e0bffac3 	ldbu	r2,-21(fp)
 40022dc:	10803fcc 	andi	r2,r2,255
 40022e0:	1080300c 	andi	r2,r2,192
 40022e4:	10000c1e 	bne	r2,zero,4002318 <_ZN9DNSClient15ProcessResponseEtR9IPAddress+0x328>
				// It's just a normal label
				if (len > 0) {
 40022e8:	e0bffac3 	ldbu	r2,-21(fp)
 40022ec:	10803fcc 	andi	r2,r2,255
 40022f0:	10001026 	beq	r2,zero,4002334 <_ZN9DNSClient15ProcessResponseEtR9IPAddress+0x344>
					// And it's got a length
					// Don't need to actually read the data out for the string,
					// just advance ptr to beyond it
					iUdp.read((uint8_t *)NULL, len);
 40022f4:	e0bffc17 	ldw	r2,-16(fp)
 40022f8:	10800204 	addi	r2,r2,8
 40022fc:	e0fffac3 	ldbu	r3,-21(fp)
 4002300:	18c03fcc 	andi	r3,r3,255
 4002304:	180d883a 	mov	r6,r3
 4002308:	000b883a 	mov	r5,zero
 400230c:	1009883a 	mov	r4,r2
 4002310:	40052cc0 	call	40052cc <_ZN11EthernetUDP4readEPhj>
 4002314:	00000706 	br	4002334 <_ZN9DNSClient15ProcessResponseEtR9IPAddress+0x344>
				// says that a name is either a sequence of labels ended with a
				// 0 length octet or a pointer or a sequence of labels ending in
				// a pointer.  Either way, when we get here we're at the end of
				// the name
				// Skip over the pointer
				iUdp.read((uint8_t *)NULL, 1); // we don't care about the byte
 4002318:	e0bffc17 	ldw	r2,-16(fp)
 400231c:	10800204 	addi	r2,r2,8
 4002320:	01800044 	movi	r6,1
 4002324:	000b883a 	mov	r5,zero
 4002328:	1009883a 	mov	r4,r2
 400232c:	40052cc0 	call	40052cc <_ZN11EthernetUDP4readEPhj>
				// And set len so that we drop out of the name loop
				len = 0;
 4002330:	e03ffac5 	stb	zero,-21(fp)
			}
		} while (len != 0);
 4002334:	e0bffac3 	ldbu	r2,-21(fp)
 4002338:	10803fcc 	andi	r2,r2,255
 400233c:	10000126 	beq	r2,zero,4002344 <_ZN9DNSClient15ProcessResponseEtR9IPAddress+0x354>
	// we're going to ignore all of them.

	for (uint16_t i=0; i < answerCount; i++) {
		// Skip the name
		uint8_t len;
		do {
 4002340:	003fde06 	br	40022bc <__alt_data_end+0xfc0022bc>
		} while (len != 0);

		// Check the type and class
		uint16_t answerType;
		uint16_t answerClass;
		iUdp.read((uint8_t*)&answerType, sizeof(answerType));
 4002344:	e0bffc17 	ldw	r2,-16(fp)
 4002348:	10800204 	addi	r2,r2,8
 400234c:	e0fffb04 	addi	r3,fp,-20
 4002350:	01800084 	movi	r6,2
 4002354:	180b883a 	mov	r5,r3
 4002358:	1009883a 	mov	r4,r2
 400235c:	40052cc0 	call	40052cc <_ZN11EthernetUDP4readEPhj>
		iUdp.read((uint8_t*)&answerClass, sizeof(answerClass));
 4002360:	e0bffc17 	ldw	r2,-16(fp)
 4002364:	10800204 	addi	r2,r2,8
 4002368:	e0fffb84 	addi	r3,fp,-18
 400236c:	01800084 	movi	r6,2
 4002370:	180b883a 	mov	r5,r3
 4002374:	1009883a 	mov	r4,r2
 4002378:	40052cc0 	call	40052cc <_ZN11EthernetUDP4readEPhj>

		// Ignore the Time-To-Live as we don't do any caching
		iUdp.read((uint8_t *)NULL, TTL_SIZE); // don't care about the returned bytes
 400237c:	e0bffc17 	ldw	r2,-16(fp)
 4002380:	10800204 	addi	r2,r2,8
 4002384:	01800104 	movi	r6,4
 4002388:	000b883a 	mov	r5,zero
 400238c:	1009883a 	mov	r4,r2
 4002390:	40052cc0 	call	40052cc <_ZN11EthernetUDP4readEPhj>

		// And read out the length of this answer
		// Don't need header_flags anymore, so we can reuse it here
		iUdp.read((uint8_t*)&header_flags, sizeof(header_flags));
 4002394:	e0bffc17 	ldw	r2,-16(fp)
 4002398:	10800204 	addi	r2,r2,8
 400239c:	e0fffa04 	addi	r3,fp,-24
 40023a0:	01800084 	movi	r6,2
 40023a4:	180b883a 	mov	r5,r3
 40023a8:	1009883a 	mov	r4,r2
 40023ac:	40052cc0 	call	40052cc <_ZN11EthernetUDP4readEPhj>

		if ( (htons(answerType) == TYPE_A) && (htons(answerClass) == CLASS_IN) ) {
 40023b0:	e0bffb0b 	ldhu	r2,-20(fp)
 40023b4:	10bfffcc 	andi	r2,r2,65535
 40023b8:	1004923a 	slli	r2,r2,8
 40023bc:	10ffffcc 	andi	r3,r2,65535
 40023c0:	e0bffb0b 	ldhu	r2,-20(fp)
 40023c4:	10bfffcc 	andi	r2,r2,65535
 40023c8:	1004d23a 	srli	r2,r2,8
 40023cc:	10bfffcc 	andi	r2,r2,65535
 40023d0:	1884b03a 	or	r2,r3,r2
 40023d4:	10800058 	cmpnei	r2,r2,1
 40023d8:	1000261e 	bne	r2,zero,4002474 <_ZN9DNSClient15ProcessResponseEtR9IPAddress+0x484>
 40023dc:	e0bffb8b 	ldhu	r2,-18(fp)
 40023e0:	10bfffcc 	andi	r2,r2,65535
 40023e4:	1004923a 	slli	r2,r2,8
 40023e8:	10ffffcc 	andi	r3,r2,65535
 40023ec:	e0bffb8b 	ldhu	r2,-18(fp)
 40023f0:	10bfffcc 	andi	r2,r2,65535
 40023f4:	1004d23a 	srli	r2,r2,8
 40023f8:	10bfffcc 	andi	r2,r2,65535
 40023fc:	1884b03a 	or	r2,r3,r2
 4002400:	10800058 	cmpnei	r2,r2,1
 4002404:	10001b1e 	bne	r2,zero,4002474 <_ZN9DNSClient15ProcessResponseEtR9IPAddress+0x484>
			if (htons(header_flags) != 4) {
 4002408:	e0bffa0b 	ldhu	r2,-24(fp)
 400240c:	10bfffcc 	andi	r2,r2,65535
 4002410:	1004923a 	slli	r2,r2,8
 4002414:	10ffffcc 	andi	r3,r2,65535
 4002418:	e0bffa0b 	ldhu	r2,-24(fp)
 400241c:	10bfffcc 	andi	r2,r2,65535
 4002420:	1004d23a 	srli	r2,r2,8
 4002424:	10bfffcc 	andi	r2,r2,65535
 4002428:	1884b03a 	or	r2,r3,r2
 400242c:	10800120 	cmpeqi	r2,r2,4
 4002430:	1000061e 	bne	r2,zero,400244c <_ZN9DNSClient15ProcessResponseEtR9IPAddress+0x45c>
				// It's a weird size
				// Mark the entire packet as read
				iUdp.flush(); // FIXME
 4002434:	e0bffc17 	ldw	r2,-16(fp)
 4002438:	10800204 	addi	r2,r2,8
 400243c:	1009883a 	mov	r4,r2
 4002440:	40054240 	call	4005424 <_ZN11EthernetUDP5flushEv>
				return -9;//INVALID_RESPONSE;
 4002444:	00bffdc4 	movi	r2,-9
 4002448:	00002106 	br	40024d0 <_ZN9DNSClient15ProcessResponseEtR9IPAddress+0x4e0>
			}
			// FIXME: seems to lock up here on ESP8266, but why??
			iUdp.read(aAddress.raw_address(), 4);
 400244c:	e0bffc17 	ldw	r2,-16(fp)
 4002450:	14000204 	addi	r16,r2,8
 4002454:	e13ffe17 	ldw	r4,-8(fp)
 4002458:	40025780 	call	4002578 <_ZN9IPAddress11raw_addressEv>
 400245c:	01800104 	movi	r6,4
 4002460:	100b883a 	mov	r5,r2
 4002464:	8009883a 	mov	r4,r16
 4002468:	40052cc0 	call	40052cc <_ZN11EthernetUDP4readEPhj>
			return SUCCESS;
 400246c:	00800044 	movi	r2,1
 4002470:	00001706 	br	40024d0 <_ZN9DNSClient15ProcessResponseEtR9IPAddress+0x4e0>
		} else {
			// This isn't an answer type we're after, move onto the next one
			iUdp.read((uint8_t *)NULL, htons(header_flags));
 4002474:	e0bffc17 	ldw	r2,-16(fp)
 4002478:	11000204 	addi	r4,r2,8
 400247c:	e0bffa0b 	ldhu	r2,-24(fp)
 4002480:	10bfffcc 	andi	r2,r2,65535
 4002484:	1004923a 	slli	r2,r2,8
 4002488:	10ffffcc 	andi	r3,r2,65535
 400248c:	e0bffa0b 	ldhu	r2,-24(fp)
 4002490:	10bfffcc 	andi	r2,r2,65535
 4002494:	1004d23a 	srli	r2,r2,8
 4002498:	10bfffcc 	andi	r2,r2,65535
 400249c:	1884b03a 	or	r2,r3,r2
 40024a0:	100d883a 	mov	r6,r2
 40024a4:	000b883a 	mov	r5,zero
 40024a8:	40052cc0 	call	40052cc <_ZN11EthernetUDP4readEPhj>
	// Now we're up to the bit we're interested in, the answer
	// There might be more than one answer (although we'll just use the first
	// type A answer) and some authority and additional resource records but
	// we're going to ignore all of them.

	for (uint16_t i=0; i < answerCount; i++) {
 40024ac:	e0bff38b 	ldhu	r2,-50(fp)
 40024b0:	10800044 	addi	r2,r2,1
 40024b4:	e0bff38d 	sth	r2,-50(fp)
 40024b8:	003f7d06 	br	40022b0 <__alt_data_end+0xfc0022b0>
			iUdp.read((uint8_t *)NULL, htons(header_flags));
		}
	}

	// Mark the entire packet as read
	iUdp.flush(); // FIXME
 40024bc:	e0bffc17 	ldw	r2,-16(fp)
 40024c0:	10800204 	addi	r2,r2,8
 40024c4:	1009883a 	mov	r4,r2
 40024c8:	40054240 	call	4005424 <_ZN11EthernetUDP5flushEv>

	// If we get here then we haven't found an answer
	return -10; //INVALID_RESPONSE;
 40024cc:	00bffd84 	movi	r2,-10
}
 40024d0:	e6ffff04 	addi	sp,fp,-4
 40024d4:	dfc00217 	ldw	ra,8(sp)
 40024d8:	df000117 	ldw	fp,4(sp)
 40024dc:	dc000017 	ldw	r16,0(sp)
 40024e0:	dec00304 	addi	sp,sp,12
 40024e4:	f800283a 	ret

040024e8 <_Z41__static_initialization_and_destruction_0ii>:
 40024e8:	defffb04 	addi	sp,sp,-20
 40024ec:	dfc00415 	stw	ra,16(sp)
 40024f0:	df000315 	stw	fp,12(sp)
 40024f4:	df000304 	addi	fp,sp,12
 40024f8:	e13ffe15 	stw	r4,-8(fp)
 40024fc:	e17fff15 	stw	r5,-4(fp)
 4002500:	e0bffe17 	ldw	r2,-8(fp)
 4002504:	10800058 	cmpnei	r2,r2,1
 4002508:	1000091e 	bne	r2,zero,4002530 <_Z41__static_initialization_and_destruction_0ii+0x48>
 400250c:	e0ffff17 	ldw	r3,-4(fp)
 4002510:	00bfffd4 	movui	r2,65535
 4002514:	1880061e 	bne	r3,r2,4002530 <_Z41__static_initialization_and_destruction_0ii+0x48>
    friend class Server;
    friend class DhcpClass;
    friend class DNSClient;
};

const IPAddress INADDR_NONE(0,0,0,0);
 4002518:	d8000015 	stw	zero,0(sp)
 400251c:	000f883a 	mov	r7,zero
 4002520:	000d883a 	mov	r6,zero
 4002524:	000b883a 	mov	r5,zero
 4002528:	d13ca704 	addi	r4,gp,-3428
 400252c:	40071a80 	call	40071a8 <_ZN9IPAddressC1Ehhhh>
 4002530:	0001883a 	nop
 4002534:	e037883a 	mov	sp,fp
 4002538:	dfc00117 	ldw	ra,4(sp)
 400253c:	df000017 	ldw	fp,0(sp)
 4002540:	dec00204 	addi	sp,sp,8
 4002544:	f800283a 	ret

04002548 <_GLOBAL__sub_I__ZN9DNSClient5beginERK9IPAddress>:
 4002548:	defffe04 	addi	sp,sp,-8
 400254c:	dfc00115 	stw	ra,4(sp)
 4002550:	df000015 	stw	fp,0(sp)
 4002554:	d839883a 	mov	fp,sp
 4002558:	017fffd4 	movui	r5,65535
 400255c:	01000044 	movi	r4,1
 4002560:	40024e80 	call	40024e8 <_Z41__static_initialization_and_destruction_0ii>
 4002564:	e037883a 	mov	sp,fp
 4002568:	dfc00117 	ldw	ra,4(sp)
 400256c:	df000017 	ldw	fp,0(sp)
 4002570:	dec00204 	addi	sp,sp,8
 4002574:	f800283a 	ret

04002578 <_ZN9IPAddress11raw_addressEv>:

    // Access the raw byte array containing the address.  Because this returns a pointer
    // to the internal structure rather than a copy of the address this function should only
    // be used when you know that the usage of the returned uint8_t* will be transient and not
    // stored.
    uint8_t* raw_address() { return _address.bytes; };
 4002578:	defffe04 	addi	sp,sp,-8
 400257c:	df000115 	stw	fp,4(sp)
 4002580:	df000104 	addi	fp,sp,4
 4002584:	e13fff15 	stw	r4,-4(fp)
 4002588:	e0bfff17 	ldw	r2,-4(fp)
 400258c:	e037883a 	mov	sp,fp
 4002590:	df000017 	ldw	fp,0(sp)
 4002594:	dec00104 	addi	sp,sp,4
 4002598:	f800283a 	ret

0400259c <_ZNK9IPAddresscvmEv>:

    bool fromString(const char *address);

    // Overloaded cast operator to allow IPAddress objects to be used where a pointer
    // to a four-byte uint8_t array is expected
    operator uint32_t() const { return _address.dword; };
 400259c:	defffe04 	addi	sp,sp,-8
 40025a0:	df000115 	stw	fp,4(sp)
 40025a4:	df000104 	addi	fp,sp,4
 40025a8:	e13fff15 	stw	r4,-4(fp)
 40025ac:	e0bfff17 	ldw	r2,-4(fp)
 40025b0:	10800017 	ldw	r2,0(r2)
 40025b4:	e037883a 	mov	sp,fp
 40025b8:	df000017 	ldw	fp,0(sp)
 40025bc:	dec00104 	addi	sp,sp,4
 40025c0:	f800283a 	ret

040025c4 <_ZN9IPAddressixEi>:
    bool operator==(const IPAddress& addr) const { return _address.dword == addr._address.dword; };
    bool operator==(const uint8_t* addr) const;

    // Overloaded index operator to allow getting and setting individual octets of the address
    uint8_t operator[](int index) const { return _address.bytes[index]; };
    uint8_t& operator[](int index) { return _address.bytes[index]; };
 40025c4:	defffd04 	addi	sp,sp,-12
 40025c8:	df000215 	stw	fp,8(sp)
 40025cc:	df000204 	addi	fp,sp,8
 40025d0:	e13ffe15 	stw	r4,-8(fp)
 40025d4:	e17fff15 	stw	r5,-4(fp)
 40025d8:	e0fffe17 	ldw	r3,-8(fp)
 40025dc:	e0bfff17 	ldw	r2,-4(fp)
 40025e0:	1885883a 	add	r2,r3,r2
 40025e4:	e037883a 	mov	sp,fp
 40025e8:	df000017 	ldw	fp,0(sp)
 40025ec:	dec00104 	addi	sp,sp,4
 40025f0:	f800283a 	ret

040025f4 <_ZN13EthernetClass5beginEPhmm>:

IPAddress EthernetClass::_dnsServerAddress;
DhcpClass* EthernetClass::_dhcp = NULL;

int EthernetClass::begin(uint8_t *mac, unsigned long timeout, unsigned long responseTimeout)
{
 40025f4:	deffdd04 	addi	sp,sp,-140
 40025f8:	dfc02215 	stw	ra,136(sp)
 40025fc:	df002115 	stw	fp,132(sp)
 4002600:	ddc02015 	stw	r23,128(sp)
 4002604:	dd801f15 	stw	r22,124(sp)
 4002608:	dd401e15 	stw	r21,120(sp)
 400260c:	dd001d15 	stw	r20,116(sp)
 4002610:	dcc01c15 	stw	r19,112(sp)
 4002614:	dc801b15 	stw	r18,108(sp)
 4002618:	dc401a15 	stw	r17,104(sp)
 400261c:	dc001915 	stw	r16,100(sp)
 4002620:	df002104 	addi	fp,sp,132
 4002624:	e13fe515 	stw	r4,-108(fp)
 4002628:	e17fe615 	stw	r5,-104(fp)
 400262c:	e1bfe715 	stw	r6,-100(fp)
 4002630:	00810074 	movhi	r2,1025
 4002634:	10a45304 	addi	r2,r2,-28340
 4002638:	e0bfee15 	stw	r2,-72(fp)
 400263c:	008100b4 	movhi	r2,1026
 4002640:	10a90c84 	addi	r2,r2,-23502
 4002644:	e0bfef15 	stw	r2,-68(fp)
 4002648:	e0bff004 	addi	r2,fp,-64
 400264c:	e0ffe004 	addi	r3,fp,-128
 4002650:	10c00015 	stw	r3,0(r2)
 4002654:	00c10034 	movhi	r3,1024
 4002658:	18ca0904 	addi	r3,r3,10276
 400265c:	10c00115 	stw	r3,4(r2)
 4002660:	16c00215 	stw	sp,8(r2)
 4002664:	e0bfe804 	addi	r2,fp,-96
 4002668:	1009883a 	mov	r4,r2
 400266c:	400a8980 	call	400a898 <_Unwind_SjLj_Register>
	static DhcpClass s_dhcp;
 4002670:	d0bcab04 	addi	r2,gp,-3412
 4002674:	10800003 	ldbu	r2,0(r2)
 4002678:	10803fcc 	andi	r2,r2,255
 400267c:	1080201c 	xori	r2,r2,128
 4002680:	10bfe004 	addi	r2,r2,-128
 4002684:	10000d1e 	bne	r2,zero,40026bc <_ZN13EthernetClass5beginEPhmm+0xc8>
 4002688:	d13cab04 	addi	r4,gp,-3412
 400268c:	4009b180 	call	4009b18 <__cxa_guard_acquire>
 4002690:	1004c03a 	cmpne	r2,r2,zero
 4002694:	10803fcc 	andi	r2,r2,255
 4002698:	10000826 	beq	r2,zero,40026bc <_ZN13EthernetClass5beginEPhmm+0xc8>
 400269c:	e03ff505 	stb	zero,-44(fp)
 40026a0:	010100f4 	movhi	r4,1027
 40026a4:	00800044 	movi	r2,1
 40026a8:	e0bfe915 	stw	r2,-92(fp)
 40026ac:	21245704 	addi	r4,r4,-28324
 40026b0:	400364c0 	call	400364c <_ZN9DhcpClassC1Ev>
 40026b4:	d13cab04 	addi	r4,gp,-3412
 40026b8:	4009b7c0 	call	4009b7c <__cxa_guard_release>
	_dhcp = &s_dhcp;
 40026bc:	008100f4 	movhi	r2,1027
 40026c0:	10a45704 	addi	r2,r2,-28324
 40026c4:	d0bcaa15 	stw	r2,-3416(gp)

	// Initialise the basic info
	if (W5100.init() == 0) return 0;
 40026c8:	00bfffc4 	movi	r2,-1
 40026cc:	e0bfe915 	stw	r2,-92(fp)
 40026d0:	40076d00 	call	40076d0 <_ZN10W5100Class4initEv>
 40026d4:	10803fcc 	andi	r2,r2,255
 40026d8:	1005003a 	cmpeq	r2,r2,zero
 40026dc:	10803fcc 	andi	r2,r2,255
 40026e0:	10000226 	beq	r2,zero,40026ec <_ZN13EthernetClass5beginEPhmm+0xf8>
 40026e4:	0005883a 	mov	r2,zero
 40026e8:	00004c06 	br	400281c <_ZN13EthernetClass5beginEPhmm+0x228>
	SPI_beginTransaction(SPI_ETHERNET_SETTINGS);
 40026ec:	00bfffc4 	movi	r2,-1
 40026f0:	e0bfe915 	stw	r2,-92(fp)
 40026f4:	0009883a 	mov	r4,zero
 40026f8:	40075800 	call	4007580 <_Z20SPI_beginTransactionPv>
	W5100.setMACAddress(mac);
 40026fc:	e17fe517 	ldw	r5,-108(fp)
 4002700:	d13cb484 	addi	r4,gp,-3374
 4002704:	40031fc0 	call	40031fc <_ZN10W5100Class13setMACAddressEPKh>
	W5100.setIPAddress(IPAddress(0,0,0,0).raw_address());
 4002708:	e0bfe404 	addi	r2,fp,-112
 400270c:	d8000015 	stw	zero,0(sp)
 4002710:	000f883a 	mov	r7,zero
 4002714:	000d883a 	mov	r6,zero
 4002718:	000b883a 	mov	r5,zero
 400271c:	1009883a 	mov	r4,r2
 4002720:	40071a80 	call	40071a8 <_ZN9IPAddressC1Ehhhh>
 4002724:	e0bfe404 	addi	r2,fp,-112
 4002728:	1009883a 	mov	r4,r2
 400272c:	40025780 	call	4002578 <_ZN9IPAddress11raw_addressEv>
 4002730:	100b883a 	mov	r5,r2
 4002734:	d13cb484 	addi	r4,gp,-3374
 4002738:	400326c0 	call	400326c <_ZN10W5100Class12setIPAddressEPKh>
	SPI_endTransaction();
 400273c:	40075a40 	call	40075a4 <_Z18SPI_endTransactionv>

	// Now try to get our config info from a DHCP server
	int ret = _dhcp->beginWithDHCP(mac, timeout, responseTimeout);
 4002740:	d0bcaa17 	ldw	r2,-3416(gp)
 4002744:	e1ffe717 	ldw	r7,-100(fp)
 4002748:	e1bfe617 	ldw	r6,-104(fp)
 400274c:	e17fe517 	ldw	r5,-108(fp)
 4002750:	1009883a 	mov	r4,r2
 4002754:	40005580 	call	4000558 <_ZN9DhcpClass13beginWithDHCPEPhmm>
 4002758:	e0bfe015 	stw	r2,-128(fp)
	if (ret == 1) {
 400275c:	e0bfe017 	ldw	r2,-128(fp)
 4002760:	10800058 	cmpnei	r2,r2,1
 4002764:	10002c1e 	bne	r2,zero,4002818 <_ZN13EthernetClass5beginEPhmm+0x224>
		// We've successfully found a DHCP server and got our configuration
		// info, so set things accordingly
		SPI_beginTransaction(SPI_ETHERNET_SETTINGS);
 4002768:	0009883a 	mov	r4,zero
 400276c:	40075800 	call	4007580 <_Z20SPI_beginTransactionPv>
		W5100.setIPAddress(_dhcp->getLocalIp().raw_address());
 4002770:	d0bcaa17 	ldw	r2,-3416(gp)
 4002774:	1009883a 	mov	r4,r2
 4002778:	40017a00 	call	40017a0 <_ZN9DhcpClass10getLocalIpEv>
 400277c:	e0bfe315 	stw	r2,-116(fp)
 4002780:	e0bfe304 	addi	r2,fp,-116
 4002784:	1009883a 	mov	r4,r2
 4002788:	40025780 	call	4002578 <_ZN9IPAddress11raw_addressEv>
 400278c:	100b883a 	mov	r5,r2
 4002790:	d13cb484 	addi	r4,gp,-3374
 4002794:	400326c0 	call	400326c <_ZN10W5100Class12setIPAddressEPKh>
		W5100.setGatewayIp(_dhcp->getGatewayIp().raw_address());
 4002798:	d0bcaa17 	ldw	r2,-3416(gp)
 400279c:	1009883a 	mov	r4,r2
 40027a0:	40018200 	call	4001820 <_ZN9DhcpClass12getGatewayIpEv>
 40027a4:	e0bfe215 	stw	r2,-120(fp)
 40027a8:	e0bfe204 	addi	r2,fp,-120
 40027ac:	1009883a 	mov	r4,r2
 40027b0:	40025780 	call	4002578 <_ZN9IPAddress11raw_addressEv>
 40027b4:	100b883a 	mov	r5,r2
 40027b8:	d13cb484 	addi	r4,gp,-3374
 40027bc:	400311c0 	call	400311c <_ZN10W5100Class12setGatewayIpEPKh>
		W5100.setSubnetMask(_dhcp->getSubnetMask().raw_address());
 40027c0:	d0bcaa17 	ldw	r2,-3416(gp)
 40027c4:	1009883a 	mov	r4,r2
 40027c8:	40017e00 	call	40017e0 <_ZN9DhcpClass13getSubnetMaskEv>
 40027cc:	e0bfe115 	stw	r2,-124(fp)
 40027d0:	e0bfe104 	addi	r2,fp,-124
 40027d4:	1009883a 	mov	r4,r2
 40027d8:	40025780 	call	4002578 <_ZN9IPAddress11raw_addressEv>
 40027dc:	100b883a 	mov	r5,r2
 40027e0:	d13cb484 	addi	r4,gp,-3374
 40027e4:	400318c0 	call	400318c <_ZN10W5100Class13setSubnetMaskEPKh>
		SPI_endTransaction();
 40027e8:	40075a40 	call	40075a4 <_Z18SPI_endTransactionv>
		_dnsServerAddress = _dhcp->getDnsServerIp();
 40027ec:	d0bcaa17 	ldw	r2,-3416(gp)
 40027f0:	1009883a 	mov	r4,r2
 40027f4:	40018a00 	call	40018a0 <_ZN9DhcpClass14getDnsServerIpEv>
 40027f8:	d0bca915 	stw	r2,-3420(gp)
		socketPortRand(millis()/1000);
 40027fc:	40075380 	call	4007538 <_Z6millisv>
 4002800:	0140fa04 	movi	r5,1000
 4002804:	1009883a 	mov	r4,r2
 4002808:	400a5d40 	call	400a5d4 <__udivsi3>
 400280c:	10bfffcc 	andi	r2,r2,65535
 4002810:	1009883a 	mov	r4,r2
 4002814:	40056340 	call	4005634 <_ZN13EthernetClass14socketPortRandEt>
	}
	return ret;
 4002818:	e0bfe017 	ldw	r2,-128(fp)
 400281c:	e0bff615 	stw	r2,-40(fp)
 4002820:	00000c06 	br	4002854 <_ZN13EthernetClass5beginEPhmm+0x260>
 4002824:	e7002004 	addi	fp,fp,128
 4002828:	e0bfea17 	ldw	r2,-88(fp)
 400282c:	e0bff715 	stw	r2,-36(fp)
IPAddress EthernetClass::_dnsServerAddress;
DhcpClass* EthernetClass::_dhcp = NULL;

int EthernetClass::begin(uint8_t *mac, unsigned long timeout, unsigned long responseTimeout)
{
	static DhcpClass s_dhcp;
 4002830:	e0bff503 	ldbu	r2,-44(fp)
 4002834:	1000021e 	bne	r2,zero,4002840 <_ZN13EthernetClass5beginEPhmm+0x24c>
 4002838:	d13cab04 	addi	r4,gp,-3412
 400283c:	4009b740 	call	4009b74 <__cxa_guard_abort>
 4002840:	e0fff717 	ldw	r3,-36(fp)
 4002844:	00bfffc4 	movi	r2,-1
 4002848:	e0bfe915 	stw	r2,-92(fp)
 400284c:	1809883a 	mov	r4,r3
 4002850:	400aa940 	call	400aa94 <_Unwind_SjLj_Resume>
 4002854:	e0bfe804 	addi	r2,fp,-96
 4002858:	1009883a 	mov	r4,r2
 400285c:	400a8b00 	call	400a8b0 <_Unwind_SjLj_Unregister>
		SPI_endTransaction();
		_dnsServerAddress = _dhcp->getDnsServerIp();
		socketPortRand(millis()/1000);
	}
	return ret;
}
 4002860:	e0bff617 	ldw	r2,-40(fp)
 4002864:	e6fff804 	addi	sp,fp,-32
 4002868:	dfc00917 	ldw	ra,36(sp)
 400286c:	df000817 	ldw	fp,32(sp)
 4002870:	ddc00717 	ldw	r23,28(sp)
 4002874:	dd800617 	ldw	r22,24(sp)
 4002878:	dd400517 	ldw	r21,20(sp)
 400287c:	dd000417 	ldw	r20,16(sp)
 4002880:	dcc00317 	ldw	r19,12(sp)
 4002884:	dc800217 	ldw	r18,8(sp)
 4002888:	dc400117 	ldw	r17,4(sp)
 400288c:	dc000017 	ldw	r16,0(sp)
 4002890:	dec00a04 	addi	sp,sp,40
 4002894:	f800283a 	ret

04002898 <_ZN13EthernetClass5beginEPh9IPAddress>:

void EthernetClass::begin(uint8_t *mac, IPAddress ip)
{
 4002898:	defffb04 	addi	sp,sp,-20
 400289c:	dfc00415 	stw	ra,16(sp)
 40028a0:	df000315 	stw	fp,12(sp)
 40028a4:	df000304 	addi	fp,sp,12
 40028a8:	e13ffe15 	stw	r4,-8(fp)
 40028ac:	e17fff15 	stw	r5,-4(fp)
	// Assume the DNS server will be the machine on the same network as the local IP
	// but with last octet being '1'
	IPAddress dns = ip;
 40028b0:	e0bfff17 	ldw	r2,-4(fp)
 40028b4:	e0bffd15 	stw	r2,-12(fp)
	dns[3] = 1;
 40028b8:	014000c4 	movi	r5,3
 40028bc:	e13ffd04 	addi	r4,fp,-12
 40028c0:	40025c40 	call	40025c4 <_ZN9IPAddressixEi>
 40028c4:	1007883a 	mov	r3,r2
 40028c8:	00800044 	movi	r2,1
 40028cc:	18800005 	stb	r2,0(r3)
	begin(mac, ip, dns);
 40028d0:	e1bffd17 	ldw	r6,-12(fp)
 40028d4:	e17fff17 	ldw	r5,-4(fp)
 40028d8:	e13ffe17 	ldw	r4,-8(fp)
 40028dc:	40028f80 	call	40028f8 <_ZN13EthernetClass5beginEPh9IPAddressS1_>
}
 40028e0:	0001883a 	nop
 40028e4:	e037883a 	mov	sp,fp
 40028e8:	dfc00117 	ldw	ra,4(sp)
 40028ec:	df000017 	ldw	fp,0(sp)
 40028f0:	dec00204 	addi	sp,sp,8
 40028f4:	f800283a 	ret

040028f8 <_ZN13EthernetClass5beginEPh9IPAddressS1_>:

void EthernetClass::begin(uint8_t *mac, IPAddress ip, IPAddress dns)
{
 40028f8:	defffa04 	addi	sp,sp,-24
 40028fc:	dfc00515 	stw	ra,20(sp)
 4002900:	df000415 	stw	fp,16(sp)
 4002904:	df000404 	addi	fp,sp,16
 4002908:	e13ffd15 	stw	r4,-12(fp)
 400290c:	e17ffe15 	stw	r5,-8(fp)
 4002910:	e1bfff15 	stw	r6,-4(fp)
	// Assume the gateway will be the machine on the same network as the local IP
	// but with last octet being '1'
	IPAddress gateway = ip;
 4002914:	e0bffe17 	ldw	r2,-8(fp)
 4002918:	e0bffc15 	stw	r2,-16(fp)
	gateway[3] = 1;
 400291c:	014000c4 	movi	r5,3
 4002920:	e13ffc04 	addi	r4,fp,-16
 4002924:	40025c40 	call	40025c4 <_ZN9IPAddressixEi>
 4002928:	1007883a 	mov	r3,r2
 400292c:	00800044 	movi	r2,1
 4002930:	18800005 	stb	r2,0(r3)
	begin(mac, ip, dns, gateway);
 4002934:	e1fffc17 	ldw	r7,-16(fp)
 4002938:	e1bfff17 	ldw	r6,-4(fp)
 400293c:	e17ffe17 	ldw	r5,-8(fp)
 4002940:	e13ffd17 	ldw	r4,-12(fp)
 4002944:	40029600 	call	4002960 <_ZN13EthernetClass5beginEPh9IPAddressS1_S1_>
}
 4002948:	0001883a 	nop
 400294c:	e037883a 	mov	sp,fp
 4002950:	dfc00117 	ldw	ra,4(sp)
 4002954:	df000017 	ldw	fp,0(sp)
 4002958:	dec00204 	addi	sp,sp,8
 400295c:	f800283a 	ret

04002960 <_ZN13EthernetClass5beginEPh9IPAddressS1_S1_>:

void EthernetClass::begin(uint8_t *mac, IPAddress ip, IPAddress dns, IPAddress gateway)
{
 4002960:	defff804 	addi	sp,sp,-32
 4002964:	dfc00715 	stw	ra,28(sp)
 4002968:	df000615 	stw	fp,24(sp)
 400296c:	df000604 	addi	fp,sp,24
 4002970:	e13ffc15 	stw	r4,-16(fp)
 4002974:	e17ffd15 	stw	r5,-12(fp)
 4002978:	e1bffe15 	stw	r6,-8(fp)
 400297c:	e1ffff15 	stw	r7,-4(fp)
	IPAddress subnet(255, 255, 255, 0);
 4002980:	d8000015 	stw	zero,0(sp)
 4002984:	01c03fc4 	movi	r7,255
 4002988:	01803fc4 	movi	r6,255
 400298c:	01403fc4 	movi	r5,255
 4002990:	e13ffb04 	addi	r4,fp,-20
 4002994:	40071a80 	call	40071a8 <_ZN9IPAddressC1Ehhhh>
	begin(mac, ip, dns, gateway, subnet);
 4002998:	e0bffb17 	ldw	r2,-20(fp)
 400299c:	d8800015 	stw	r2,0(sp)
 40029a0:	e1ffff17 	ldw	r7,-4(fp)
 40029a4:	e1bffe17 	ldw	r6,-8(fp)
 40029a8:	e17ffd17 	ldw	r5,-12(fp)
 40029ac:	e13ffc17 	ldw	r4,-16(fp)
 40029b0:	40029cc0 	call	40029cc <_ZN13EthernetClass5beginEPh9IPAddressS1_S1_S1_>
}
 40029b4:	0001883a 	nop
 40029b8:	e037883a 	mov	sp,fp
 40029bc:	dfc00117 	ldw	ra,4(sp)
 40029c0:	df000017 	ldw	fp,0(sp)
 40029c4:	dec00204 	addi	sp,sp,8
 40029c8:	f800283a 	ret

040029cc <_ZN13EthernetClass5beginEPh9IPAddressS1_S1_S1_>:

void EthernetClass::begin(uint8_t *mac, IPAddress ip, IPAddress dns, IPAddress gateway, IPAddress subnet)
{
 40029cc:	defffa04 	addi	sp,sp,-24
 40029d0:	dfc00515 	stw	ra,20(sp)
 40029d4:	df000415 	stw	fp,16(sp)
 40029d8:	df000404 	addi	fp,sp,16
 40029dc:	e13ffc15 	stw	r4,-16(fp)
 40029e0:	e17ffd15 	stw	r5,-12(fp)
 40029e4:	e1bffe15 	stw	r6,-8(fp)
 40029e8:	e1ffff15 	stw	r7,-4(fp)
	if (W5100.init() == 0) return;
 40029ec:	40076d00 	call	40076d0 <_ZN10W5100Class4initEv>
 40029f0:	10803fcc 	andi	r2,r2,255
 40029f4:	1005003a 	cmpeq	r2,r2,zero
 40029f8:	10803fcc 	andi	r2,r2,255
 40029fc:	10001d1e 	bne	r2,zero,4002a74 <_ZN13EthernetClass5beginEPh9IPAddressS1_S1_S1_+0xa8>
	SPI_beginTransaction(SPI_ETHERNET_SETTINGS);
 4002a00:	0009883a 	mov	r4,zero
 4002a04:	40075800 	call	4007580 <_Z20SPI_beginTransactionPv>
	W5100.setMACAddress(mac);
 4002a08:	e17ffc17 	ldw	r5,-16(fp)
 4002a0c:	d13cb484 	addi	r4,gp,-3374
 4002a10:	40031fc0 	call	40031fc <_ZN10W5100Class13setMACAddressEPKh>
//#ifdef ESP8266
	W5100.setIPAddress(&ip[0]);
 4002a14:	e0bffd04 	addi	r2,fp,-12
 4002a18:	000b883a 	mov	r5,zero
 4002a1c:	1009883a 	mov	r4,r2
 4002a20:	40025c40 	call	40025c4 <_ZN9IPAddressixEi>
 4002a24:	100b883a 	mov	r5,r2
 4002a28:	d13cb484 	addi	r4,gp,-3374
 4002a2c:	400326c0 	call	400326c <_ZN10W5100Class12setIPAddressEPKh>
	W5100.setGatewayIp(&gateway[0]);
 4002a30:	e0bfff04 	addi	r2,fp,-4
 4002a34:	000b883a 	mov	r5,zero
 4002a38:	1009883a 	mov	r4,r2
 4002a3c:	40025c40 	call	40025c4 <_ZN9IPAddressixEi>
 4002a40:	100b883a 	mov	r5,r2
 4002a44:	d13cb484 	addi	r4,gp,-3374
 4002a48:	400311c0 	call	400311c <_ZN10W5100Class12setGatewayIpEPKh>
	W5100.setSubnetMask(&subnet[0]);
 4002a4c:	000b883a 	mov	r5,zero
 4002a50:	e1000204 	addi	r4,fp,8
 4002a54:	40025c40 	call	40025c4 <_ZN9IPAddressixEi>
 4002a58:	100b883a 	mov	r5,r2
 4002a5c:	d13cb484 	addi	r4,gp,-3374
 4002a60:	400318c0 	call	400318c <_ZN10W5100Class13setSubnetMaskEPKh>
//#else
//	W5100.setIPAddress(ip._address);
//	W5100.setGatewayIp(gateway._address);
//	W5100.setSubnetMask(subnet._address);
//#endif
	SPI_endTransaction();
 4002a64:	40075a40 	call	40075a4 <_Z18SPI_endTransactionv>
	_dnsServerAddress = dns;
 4002a68:	e0bffe17 	ldw	r2,-8(fp)
 4002a6c:	d0bca915 	stw	r2,-3420(gp)
 4002a70:	00000106 	br	4002a78 <_ZN13EthernetClass5beginEPh9IPAddressS1_S1_S1_+0xac>
	begin(mac, ip, dns, gateway, subnet);
}

void EthernetClass::begin(uint8_t *mac, IPAddress ip, IPAddress dns, IPAddress gateway, IPAddress subnet)
{
	if (W5100.init() == 0) return;
 4002a74:	0001883a 	nop
//	W5100.setGatewayIp(gateway._address);
//	W5100.setSubnetMask(subnet._address);
//#endif
	SPI_endTransaction();
	_dnsServerAddress = dns;
}
 4002a78:	e037883a 	mov	sp,fp
 4002a7c:	dfc00117 	ldw	ra,4(sp)
 4002a80:	df000017 	ldw	fp,0(sp)
 4002a84:	dec00204 	addi	sp,sp,8
 4002a88:	f800283a 	ret

04002a8c <_ZN13EthernetClass4initEh>:

void EthernetClass::init(uint8_t sspin)
{
 4002a8c:	defffd04 	addi	sp,sp,-12
 4002a90:	dfc00215 	stw	ra,8(sp)
 4002a94:	df000115 	stw	fp,4(sp)
 4002a98:	df000104 	addi	fp,sp,4
 4002a9c:	2005883a 	mov	r2,r4
 4002aa0:	e0bfff05 	stb	r2,-4(fp)
	W5100.setSS(sspin);
 4002aa4:	e0bfff03 	ldbu	r2,-4(fp)
 4002aa8:	1009883a 	mov	r4,r2
 4002aac:	400361c0 	call	400361c <_ZN10W5100Class5setSSEh>
}
 4002ab0:	0001883a 	nop
 4002ab4:	e037883a 	mov	sp,fp
 4002ab8:	dfc00117 	ldw	ra,4(sp)
 4002abc:	df000017 	ldw	fp,0(sp)
 4002ac0:	dec00204 	addi	sp,sp,8
 4002ac4:	f800283a 	ret

04002ac8 <_ZN13EthernetClass10linkStatusEv>:

EthernetLinkStatus EthernetClass::linkStatus()
{
 4002ac8:	defffe04 	addi	sp,sp,-8
 4002acc:	dfc00115 	stw	ra,4(sp)
 4002ad0:	df000015 	stw	fp,0(sp)
 4002ad4:	d839883a 	mov	fp,sp
	switch (W5100.getLinkStatus()) {
 4002ad8:	4007b0c0 	call	4007b0c <_ZN10W5100Class13getLinkStatusEv>
 4002adc:	10c00060 	cmpeqi	r3,r2,1
 4002ae0:	1800051e 	bne	r3,zero,4002af8 <_ZN13EthernetClass10linkStatusEv+0x30>
 4002ae4:	10c000a0 	cmpeqi	r3,r2,2
 4002ae8:	1800051e 	bne	r3,zero,4002b00 <_ZN13EthernetClass10linkStatusEv+0x38>
 4002aec:	1000061e 	bne	r2,zero,4002b08 <_ZN13EthernetClass10linkStatusEv+0x40>
		case UNKNOWN:  return Unknown;
 4002af0:	0005883a 	mov	r2,zero
 4002af4:	00000506 	br	4002b0c <_ZN13EthernetClass10linkStatusEv+0x44>
		case LINK_ON:  return LinkON;
 4002af8:	00800044 	movi	r2,1
 4002afc:	00000306 	br	4002b0c <_ZN13EthernetClass10linkStatusEv+0x44>
		case LINK_OFF: return LinkOFF;
 4002b00:	00800084 	movi	r2,2
 4002b04:	00000106 	br	4002b0c <_ZN13EthernetClass10linkStatusEv+0x44>
		default:       return Unknown;
 4002b08:	0005883a 	mov	r2,zero
	}
}
 4002b0c:	e037883a 	mov	sp,fp
 4002b10:	dfc00117 	ldw	ra,4(sp)
 4002b14:	df000017 	ldw	fp,0(sp)
 4002b18:	dec00204 	addi	sp,sp,8
 4002b1c:	f800283a 	ret

04002b20 <_ZN13EthernetClass14hardwareStatusEv>:

EthernetHardwareStatus EthernetClass::hardwareStatus()
{
 4002b20:	defffe04 	addi	sp,sp,-8
 4002b24:	dfc00115 	stw	ra,4(sp)
 4002b28:	df000015 	stw	fp,0(sp)
 4002b2c:	d839883a 	mov	fp,sp
	switch (W5100.getChip()) {
 4002b30:	40035fc0 	call	40035fc <_ZN10W5100Class7getChipEv>
 4002b34:	10803fcc 	andi	r2,r2,255
 4002b38:	10c00d20 	cmpeqi	r3,r2,52
 4002b3c:	1800061e 	bne	r3,zero,4002b58 <_ZN13EthernetClass14hardwareStatusEv+0x38>
 4002b40:	10c00de0 	cmpeqi	r3,r2,55
 4002b44:	1800061e 	bne	r3,zero,4002b60 <_ZN13EthernetClass14hardwareStatusEv+0x40>
 4002b48:	10800ce0 	cmpeqi	r2,r2,51
 4002b4c:	10000626 	beq	r2,zero,4002b68 <_ZN13EthernetClass14hardwareStatusEv+0x48>
		case 51: return EthernetW5100;
 4002b50:	00800044 	movi	r2,1
 4002b54:	00000506 	br	4002b6c <_ZN13EthernetClass14hardwareStatusEv+0x4c>
		case 52: return EthernetW5200;
 4002b58:	00800084 	movi	r2,2
 4002b5c:	00000306 	br	4002b6c <_ZN13EthernetClass14hardwareStatusEv+0x4c>
		case 55: return EthernetW5500;
 4002b60:	008000c4 	movi	r2,3
 4002b64:	00000106 	br	4002b6c <_ZN13EthernetClass14hardwareStatusEv+0x4c>
		default: return EthernetNoHardware;
 4002b68:	0005883a 	mov	r2,zero
	}
}
 4002b6c:	e037883a 	mov	sp,fp
 4002b70:	dfc00117 	ldw	ra,4(sp)
 4002b74:	df000017 	ldw	fp,0(sp)
 4002b78:	dec00204 	addi	sp,sp,8
 4002b7c:	f800283a 	ret

04002b80 <_ZN13EthernetClass8maintainEv>:

int EthernetClass::maintain()
{
 4002b80:	defffa04 	addi	sp,sp,-24
 4002b84:	dfc00515 	stw	ra,20(sp)
 4002b88:	df000415 	stw	fp,16(sp)
 4002b8c:	df000404 	addi	fp,sp,16
	int rc = DHCP_CHECK_NONE;
 4002b90:	e03ffc15 	stw	zero,-16(fp)
	if (_dhcp != NULL) {
 4002b94:	d0bcaa17 	ldw	r2,-3416(gp)
 4002b98:	10003226 	beq	r2,zero,4002c64 <_ZN13EthernetClass8maintainEv+0xe4>
		// we have a pointer to dhcp, use it
		rc = _dhcp->checkLease();
 4002b9c:	d0bcaa17 	ldw	r2,-3416(gp)
 4002ba0:	1009883a 	mov	r4,r2
 4002ba4:	40016140 	call	4001614 <_ZN9DhcpClass10checkLeaseEv>
 4002ba8:	e0bffc15 	stw	r2,-16(fp)
		switch (rc) {
 4002bac:	e0bffc17 	ldw	r2,-16(fp)
 4002bb0:	10c000a0 	cmpeqi	r3,r2,2
 4002bb4:	1800041e 	bne	r3,zero,4002bc8 <_ZN13EthernetClass8maintainEv+0x48>
 4002bb8:	10c00120 	cmpeqi	r3,r2,4
 4002bbc:	1800021e 	bne	r3,zero,4002bc8 <_ZN13EthernetClass8maintainEv+0x48>
 4002bc0:	10002726 	beq	r2,zero,4002c60 <_ZN13EthernetClass8maintainEv+0xe0>
			SPI_endTransaction();
			_dnsServerAddress = _dhcp->getDnsServerIp();
			break;
		default:
			//this is actually an error, it will retry though
			break;
 4002bc4:	00002706 	br	4002c64 <_ZN13EthernetClass8maintainEv+0xe4>
			//nothing done
			break;
		case DHCP_CHECK_RENEW_OK:
		case DHCP_CHECK_REBIND_OK:
			//we might have got a new IP.
			SPI_beginTransaction(SPI_ETHERNET_SETTINGS);
 4002bc8:	0009883a 	mov	r4,zero
 4002bcc:	40075800 	call	4007580 <_Z20SPI_beginTransactionPv>
			W5100.setIPAddress(_dhcp->getLocalIp().raw_address());
 4002bd0:	d0bcaa17 	ldw	r2,-3416(gp)
 4002bd4:	1009883a 	mov	r4,r2
 4002bd8:	40017a00 	call	40017a0 <_ZN9DhcpClass10getLocalIpEv>
 4002bdc:	e0bfff15 	stw	r2,-4(fp)
 4002be0:	e0bfff04 	addi	r2,fp,-4
 4002be4:	1009883a 	mov	r4,r2
 4002be8:	40025780 	call	4002578 <_ZN9IPAddress11raw_addressEv>
 4002bec:	100b883a 	mov	r5,r2
 4002bf0:	d13cb484 	addi	r4,gp,-3374
 4002bf4:	400326c0 	call	400326c <_ZN10W5100Class12setIPAddressEPKh>
			W5100.setGatewayIp(_dhcp->getGatewayIp().raw_address());
 4002bf8:	d0bcaa17 	ldw	r2,-3416(gp)
 4002bfc:	1009883a 	mov	r4,r2
 4002c00:	40018200 	call	4001820 <_ZN9DhcpClass12getGatewayIpEv>
 4002c04:	e0bffe15 	stw	r2,-8(fp)
 4002c08:	e0bffe04 	addi	r2,fp,-8
 4002c0c:	1009883a 	mov	r4,r2
 4002c10:	40025780 	call	4002578 <_ZN9IPAddress11raw_addressEv>
 4002c14:	100b883a 	mov	r5,r2
 4002c18:	d13cb484 	addi	r4,gp,-3374
 4002c1c:	400311c0 	call	400311c <_ZN10W5100Class12setGatewayIpEPKh>
			W5100.setSubnetMask(_dhcp->getSubnetMask().raw_address());
 4002c20:	d0bcaa17 	ldw	r2,-3416(gp)
 4002c24:	1009883a 	mov	r4,r2
 4002c28:	40017e00 	call	40017e0 <_ZN9DhcpClass13getSubnetMaskEv>
 4002c2c:	e0bffd15 	stw	r2,-12(fp)
 4002c30:	e0bffd04 	addi	r2,fp,-12
 4002c34:	1009883a 	mov	r4,r2
 4002c38:	40025780 	call	4002578 <_ZN9IPAddress11raw_addressEv>
 4002c3c:	100b883a 	mov	r5,r2
 4002c40:	d13cb484 	addi	r4,gp,-3374
 4002c44:	400318c0 	call	400318c <_ZN10W5100Class13setSubnetMaskEPKh>
			SPI_endTransaction();
 4002c48:	40075a40 	call	40075a4 <_Z18SPI_endTransactionv>
			_dnsServerAddress = _dhcp->getDnsServerIp();
 4002c4c:	d0bcaa17 	ldw	r2,-3416(gp)
 4002c50:	1009883a 	mov	r4,r2
 4002c54:	40018a00 	call	40018a0 <_ZN9DhcpClass14getDnsServerIpEv>
 4002c58:	d0bca915 	stw	r2,-3420(gp)
			break;
 4002c5c:	00000106 	br	4002c64 <_ZN13EthernetClass8maintainEv+0xe4>
		// we have a pointer to dhcp, use it
		rc = _dhcp->checkLease();
		switch (rc) {
		case DHCP_CHECK_NONE:
			//nothing done
			break;
 4002c60:	0001883a 	nop
		default:
			//this is actually an error, it will retry though
			break;
		}
	}
	return rc;
 4002c64:	e0bffc17 	ldw	r2,-16(fp)
}
 4002c68:	e037883a 	mov	sp,fp
 4002c6c:	dfc00117 	ldw	ra,4(sp)
 4002c70:	df000017 	ldw	fp,0(sp)
 4002c74:	dec00204 	addi	sp,sp,8
 4002c78:	f800283a 	ret

04002c7c <_ZN13EthernetClass10MACAddressEPh>:


void EthernetClass::MACAddress(uint8_t *mac_address)
{
 4002c7c:	defffd04 	addi	sp,sp,-12
 4002c80:	dfc00215 	stw	ra,8(sp)
 4002c84:	df000115 	stw	fp,4(sp)
 4002c88:	df000104 	addi	fp,sp,4
 4002c8c:	e13fff15 	stw	r4,-4(fp)
	SPI_beginTransaction(SPI_ETHERNET_SETTINGS);
 4002c90:	0009883a 	mov	r4,zero
 4002c94:	40075800 	call	4007580 <_Z20SPI_beginTransactionPv>
	W5100.getMACAddress(mac_address);
 4002c98:	e17fff17 	ldw	r5,-4(fp)
 4002c9c:	d13cb484 	addi	r4,gp,-3374
 4002ca0:	40032340 	call	4003234 <_ZN10W5100Class13getMACAddressEPh>
	SPI_endTransaction();
 4002ca4:	40075a40 	call	40075a4 <_Z18SPI_endTransactionv>
}
 4002ca8:	0001883a 	nop
 4002cac:	e037883a 	mov	sp,fp
 4002cb0:	dfc00117 	ldw	ra,4(sp)
 4002cb4:	df000017 	ldw	fp,0(sp)
 4002cb8:	dec00204 	addi	sp,sp,8
 4002cbc:	f800283a 	ret

04002cc0 <_ZN13EthernetClass7localIPEv>:

IPAddress EthernetClass::localIP()
{
 4002cc0:	defffd04 	addi	sp,sp,-12
 4002cc4:	dfc00215 	stw	ra,8(sp)
 4002cc8:	df000115 	stw	fp,4(sp)
 4002ccc:	df000104 	addi	fp,sp,4
	IPAddress ret;
 4002cd0:	e13fff04 	addi	r4,fp,-4
 4002cd4:	400717c0 	call	400717c <_ZN9IPAddressC1Ev>
	SPI_beginTransaction(SPI_ETHERNET_SETTINGS);
 4002cd8:	0009883a 	mov	r4,zero
 4002cdc:	40075800 	call	4007580 <_Z20SPI_beginTransactionPv>
	W5100.getIPAddress(ret.raw_address());
 4002ce0:	e13fff04 	addi	r4,fp,-4
 4002ce4:	40025780 	call	4002578 <_ZN9IPAddress11raw_addressEv>
 4002ce8:	100b883a 	mov	r5,r2
 4002cec:	d13cb484 	addi	r4,gp,-3374
 4002cf0:	40032a40 	call	40032a4 <_ZN10W5100Class12getIPAddressEPh>
	SPI_endTransaction();
 4002cf4:	40075a40 	call	40075a4 <_Z18SPI_endTransactionv>
	return ret;
 4002cf8:	e0bfff17 	ldw	r2,-4(fp)
}
 4002cfc:	e037883a 	mov	sp,fp
 4002d00:	dfc00117 	ldw	ra,4(sp)
 4002d04:	df000017 	ldw	fp,0(sp)
 4002d08:	dec00204 	addi	sp,sp,8
 4002d0c:	f800283a 	ret

04002d10 <_ZN13EthernetClass10subnetMaskEv>:

IPAddress EthernetClass::subnetMask()
{
 4002d10:	defffd04 	addi	sp,sp,-12
 4002d14:	dfc00215 	stw	ra,8(sp)
 4002d18:	df000115 	stw	fp,4(sp)
 4002d1c:	df000104 	addi	fp,sp,4
	IPAddress ret;
 4002d20:	e13fff04 	addi	r4,fp,-4
 4002d24:	400717c0 	call	400717c <_ZN9IPAddressC1Ev>
	SPI_beginTransaction(SPI_ETHERNET_SETTINGS);
 4002d28:	0009883a 	mov	r4,zero
 4002d2c:	40075800 	call	4007580 <_Z20SPI_beginTransactionPv>
	W5100.getSubnetMask(ret.raw_address());
 4002d30:	e13fff04 	addi	r4,fp,-4
 4002d34:	40025780 	call	4002578 <_ZN9IPAddress11raw_addressEv>
 4002d38:	100b883a 	mov	r5,r2
 4002d3c:	d13cb484 	addi	r4,gp,-3374
 4002d40:	40031c40 	call	40031c4 <_ZN10W5100Class13getSubnetMaskEPh>
	SPI_endTransaction();
 4002d44:	40075a40 	call	40075a4 <_Z18SPI_endTransactionv>
	return ret;
 4002d48:	e0bfff17 	ldw	r2,-4(fp)
}
 4002d4c:	e037883a 	mov	sp,fp
 4002d50:	dfc00117 	ldw	ra,4(sp)
 4002d54:	df000017 	ldw	fp,0(sp)
 4002d58:	dec00204 	addi	sp,sp,8
 4002d5c:	f800283a 	ret

04002d60 <_ZN13EthernetClass9gatewayIPEv>:

IPAddress EthernetClass::gatewayIP()
{
 4002d60:	defffd04 	addi	sp,sp,-12
 4002d64:	dfc00215 	stw	ra,8(sp)
 4002d68:	df000115 	stw	fp,4(sp)
 4002d6c:	df000104 	addi	fp,sp,4
	IPAddress ret;
 4002d70:	e13fff04 	addi	r4,fp,-4
 4002d74:	400717c0 	call	400717c <_ZN9IPAddressC1Ev>
	SPI_beginTransaction(SPI_ETHERNET_SETTINGS);
 4002d78:	0009883a 	mov	r4,zero
 4002d7c:	40075800 	call	4007580 <_Z20SPI_beginTransactionPv>
	W5100.getGatewayIp(ret.raw_address());
 4002d80:	e13fff04 	addi	r4,fp,-4
 4002d84:	40025780 	call	4002578 <_ZN9IPAddress11raw_addressEv>
 4002d88:	100b883a 	mov	r5,r2
 4002d8c:	d13cb484 	addi	r4,gp,-3374
 4002d90:	40031540 	call	4003154 <_ZN10W5100Class12getGatewayIpEPh>
	SPI_endTransaction();
 4002d94:	40075a40 	call	40075a4 <_Z18SPI_endTransactionv>
	return ret;
 4002d98:	e0bfff17 	ldw	r2,-4(fp)
}
 4002d9c:	e037883a 	mov	sp,fp
 4002da0:	dfc00117 	ldw	ra,4(sp)
 4002da4:	df000017 	ldw	fp,0(sp)
 4002da8:	dec00204 	addi	sp,sp,8
 4002dac:	f800283a 	ret

04002db0 <_ZN13EthernetClass13setMACAddressEPKh>:

void EthernetClass::setMACAddress(const uint8_t *mac_address)
{
 4002db0:	defffc04 	addi	sp,sp,-16
 4002db4:	dfc00315 	stw	ra,12(sp)
 4002db8:	df000215 	stw	fp,8(sp)
 4002dbc:	df000204 	addi	fp,sp,8
 4002dc0:	e13ffe15 	stw	r4,-8(fp)
 4002dc4:	e17fff15 	stw	r5,-4(fp)
	SPI_beginTransaction(SPI_ETHERNET_SETTINGS);
 4002dc8:	0009883a 	mov	r4,zero
 4002dcc:	40075800 	call	4007580 <_Z20SPI_beginTransactionPv>
	W5100.setMACAddress(mac_address);
 4002dd0:	e17fff17 	ldw	r5,-4(fp)
 4002dd4:	d13cb484 	addi	r4,gp,-3374
 4002dd8:	40031fc0 	call	40031fc <_ZN10W5100Class13setMACAddressEPKh>
	SPI_endTransaction();
 4002ddc:	40075a40 	call	40075a4 <_Z18SPI_endTransactionv>
}
 4002de0:	0001883a 	nop
 4002de4:	e037883a 	mov	sp,fp
 4002de8:	dfc00117 	ldw	ra,4(sp)
 4002dec:	df000017 	ldw	fp,0(sp)
 4002df0:	dec00204 	addi	sp,sp,8
 4002df4:	f800283a 	ret

04002df8 <_ZN13EthernetClass10setLocalIPE9IPAddress>:

void EthernetClass::setLocalIP(const IPAddress local_ip)
{
 4002df8:	defffb04 	addi	sp,sp,-20
 4002dfc:	dfc00415 	stw	ra,16(sp)
 4002e00:	df000315 	stw	fp,12(sp)
 4002e04:	df000304 	addi	fp,sp,12
 4002e08:	e13ffe15 	stw	r4,-8(fp)
 4002e0c:	e17fff15 	stw	r5,-4(fp)
	SPI_beginTransaction(SPI_ETHERNET_SETTINGS);
 4002e10:	0009883a 	mov	r4,zero
 4002e14:	40075800 	call	4007580 <_Z20SPI_beginTransactionPv>
	IPAddress ip = local_ip;
 4002e18:	e0bfff17 	ldw	r2,-4(fp)
 4002e1c:	e0bffd15 	stw	r2,-12(fp)
	W5100.setIPAddress(ip.raw_address());
 4002e20:	e13ffd04 	addi	r4,fp,-12
 4002e24:	40025780 	call	4002578 <_ZN9IPAddress11raw_addressEv>
 4002e28:	100b883a 	mov	r5,r2
 4002e2c:	d13cb484 	addi	r4,gp,-3374
 4002e30:	400326c0 	call	400326c <_ZN10W5100Class12setIPAddressEPKh>
	SPI_endTransaction();
 4002e34:	40075a40 	call	40075a4 <_Z18SPI_endTransactionv>
}
 4002e38:	0001883a 	nop
 4002e3c:	e037883a 	mov	sp,fp
 4002e40:	dfc00117 	ldw	ra,4(sp)
 4002e44:	df000017 	ldw	fp,0(sp)
 4002e48:	dec00204 	addi	sp,sp,8
 4002e4c:	f800283a 	ret

04002e50 <_ZN13EthernetClass13setSubnetMaskE9IPAddress>:

void EthernetClass::setSubnetMask(const IPAddress subnet)
{
 4002e50:	defffb04 	addi	sp,sp,-20
 4002e54:	dfc00415 	stw	ra,16(sp)
 4002e58:	df000315 	stw	fp,12(sp)
 4002e5c:	df000304 	addi	fp,sp,12
 4002e60:	e13ffe15 	stw	r4,-8(fp)
 4002e64:	e17fff15 	stw	r5,-4(fp)
	SPI_beginTransaction(SPI_ETHERNET_SETTINGS);
 4002e68:	0009883a 	mov	r4,zero
 4002e6c:	40075800 	call	4007580 <_Z20SPI_beginTransactionPv>
	IPAddress ip = subnet;
 4002e70:	e0bfff17 	ldw	r2,-4(fp)
 4002e74:	e0bffd15 	stw	r2,-12(fp)
	W5100.setSubnetMask(ip.raw_address());
 4002e78:	e13ffd04 	addi	r4,fp,-12
 4002e7c:	40025780 	call	4002578 <_ZN9IPAddress11raw_addressEv>
 4002e80:	100b883a 	mov	r5,r2
 4002e84:	d13cb484 	addi	r4,gp,-3374
 4002e88:	400318c0 	call	400318c <_ZN10W5100Class13setSubnetMaskEPKh>
	SPI_endTransaction();
 4002e8c:	40075a40 	call	40075a4 <_Z18SPI_endTransactionv>
}
 4002e90:	0001883a 	nop
 4002e94:	e037883a 	mov	sp,fp
 4002e98:	dfc00117 	ldw	ra,4(sp)
 4002e9c:	df000017 	ldw	fp,0(sp)
 4002ea0:	dec00204 	addi	sp,sp,8
 4002ea4:	f800283a 	ret

04002ea8 <_ZN13EthernetClass12setGatewayIPE9IPAddress>:

void EthernetClass::setGatewayIP(const IPAddress gateway)
{
 4002ea8:	defffb04 	addi	sp,sp,-20
 4002eac:	dfc00415 	stw	ra,16(sp)
 4002eb0:	df000315 	stw	fp,12(sp)
 4002eb4:	df000304 	addi	fp,sp,12
 4002eb8:	e13ffe15 	stw	r4,-8(fp)
 4002ebc:	e17fff15 	stw	r5,-4(fp)
	SPI_beginTransaction(SPI_ETHERNET_SETTINGS);
 4002ec0:	0009883a 	mov	r4,zero
 4002ec4:	40075800 	call	4007580 <_Z20SPI_beginTransactionPv>
	IPAddress ip = gateway;
 4002ec8:	e0bfff17 	ldw	r2,-4(fp)
 4002ecc:	e0bffd15 	stw	r2,-12(fp)
	W5100.setGatewayIp(ip.raw_address());
 4002ed0:	e13ffd04 	addi	r4,fp,-12
 4002ed4:	40025780 	call	4002578 <_ZN9IPAddress11raw_addressEv>
 4002ed8:	100b883a 	mov	r5,r2
 4002edc:	d13cb484 	addi	r4,gp,-3374
 4002ee0:	400311c0 	call	400311c <_ZN10W5100Class12setGatewayIpEPKh>
	SPI_endTransaction();
 4002ee4:	40075a40 	call	40075a4 <_Z18SPI_endTransactionv>
}
 4002ee8:	0001883a 	nop
 4002eec:	e037883a 	mov	sp,fp
 4002ef0:	dfc00117 	ldw	ra,4(sp)
 4002ef4:	df000017 	ldw	fp,0(sp)
 4002ef8:	dec00204 	addi	sp,sp,8
 4002efc:	f800283a 	ret

04002f00 <_ZN13EthernetClass24setRetransmissionTimeoutEt>:

void EthernetClass::setRetransmissionTimeout(uint16_t milliseconds)
{
 4002f00:	defffc04 	addi	sp,sp,-16
 4002f04:	dfc00315 	stw	ra,12(sp)
 4002f08:	df000215 	stw	fp,8(sp)
 4002f0c:	df000204 	addi	fp,sp,8
 4002f10:	e13ffe15 	stw	r4,-8(fp)
 4002f14:	2805883a 	mov	r2,r5
 4002f18:	e0bfff0d 	sth	r2,-4(fp)
	if (milliseconds > 6553) milliseconds = 6553;
 4002f1c:	e0bfff0b 	ldhu	r2,-4(fp)
 4002f20:	108666b0 	cmpltui	r2,r2,6554
 4002f24:	1000021e 	bne	r2,zero,4002f30 <_ZN13EthernetClass24setRetransmissionTimeoutEt+0x30>
 4002f28:	00866644 	movi	r2,6553
 4002f2c:	e0bfff0d 	sth	r2,-4(fp)
	SPI_beginTransaction(SPI_ETHERNET_SETTINGS);
 4002f30:	0009883a 	mov	r4,zero
 4002f34:	40075800 	call	4007580 <_Z20SPI_beginTransactionPv>
	W5100.setRetransmissionTime(milliseconds * 10);
 4002f38:	e0bfff0b 	ldhu	r2,-4(fp)
 4002f3c:	108002a4 	muli	r2,r2,10
 4002f40:	10bfffcc 	andi	r2,r2,65535
 4002f44:	100b883a 	mov	r5,r2
 4002f48:	d13cb484 	addi	r4,gp,-3374
 4002f4c:	40032dc0 	call	40032dc <_ZN10W5100Class21setRetransmissionTimeEt>
	SPI_endTransaction();
 4002f50:	40075a40 	call	40075a4 <_Z18SPI_endTransactionv>
}
 4002f54:	0001883a 	nop
 4002f58:	e037883a 	mov	sp,fp
 4002f5c:	dfc00117 	ldw	ra,4(sp)
 4002f60:	df000017 	ldw	fp,0(sp)
 4002f64:	dec00204 	addi	sp,sp,8
 4002f68:	f800283a 	ret

04002f6c <_ZN13EthernetClass22setRetransmissionCountEh>:

void EthernetClass::setRetransmissionCount(uint8_t num)
{
 4002f6c:	defffc04 	addi	sp,sp,-16
 4002f70:	dfc00315 	stw	ra,12(sp)
 4002f74:	df000215 	stw	fp,8(sp)
 4002f78:	df000204 	addi	fp,sp,8
 4002f7c:	e13ffe15 	stw	r4,-8(fp)
 4002f80:	2805883a 	mov	r2,r5
 4002f84:	e0bfff05 	stb	r2,-4(fp)
	SPI_beginTransaction(SPI_ETHERNET_SETTINGS);
 4002f88:	0009883a 	mov	r4,zero
 4002f8c:	40075800 	call	4007580 <_Z20SPI_beginTransactionPv>
	W5100.setRetransmissionCount(num);
 4002f90:	e0bfff03 	ldbu	r2,-4(fp)
 4002f94:	100b883a 	mov	r5,r2
 4002f98:	d13cb484 	addi	r4,gp,-3374
 4002f9c:	400331c0 	call	400331c <_ZN10W5100Class22setRetransmissionCountEh>
	SPI_endTransaction();
 4002fa0:	40075a40 	call	40075a4 <_Z18SPI_endTransactionv>
}
 4002fa4:	0001883a 	nop
 4002fa8:	e037883a 	mov	sp,fp
 4002fac:	dfc00117 	ldw	ra,4(sp)
 4002fb0:	df000017 	ldw	fp,0(sp)
 4002fb4:	dec00204 	addi	sp,sp,8
 4002fb8:	f800283a 	ret

04002fbc <_Z41__static_initialization_and_destruction_0ii>:





EthernetClass Ethernet;
 4002fbc:	defffb04 	addi	sp,sp,-20
 4002fc0:	dfc00415 	stw	ra,16(sp)
 4002fc4:	df000315 	stw	fp,12(sp)
 4002fc8:	df000304 	addi	fp,sp,12
 4002fcc:	e13ffe15 	stw	r4,-8(fp)
 4002fd0:	e17fff15 	stw	r5,-4(fp)
 4002fd4:	e0bffe17 	ldw	r2,-8(fp)
 4002fd8:	10800058 	cmpnei	r2,r2,1
 4002fdc:	10000b1e 	bne	r2,zero,400300c <_Z41__static_initialization_and_destruction_0ii+0x50>
 4002fe0:	e0ffff17 	ldw	r3,-4(fp)
 4002fe4:	00bfffd4 	movui	r2,65535
 4002fe8:	1880081e 	bne	r3,r2,400300c <_Z41__static_initialization_and_destruction_0ii+0x50>
    friend class Server;
    friend class DhcpClass;
    friend class DNSClient;
};

const IPAddress INADDR_NONE(0,0,0,0);
 4002fec:	d8000015 	stw	zero,0(sp)
 4002ff0:	000f883a 	mov	r7,zero
 4002ff4:	000d883a 	mov	r6,zero
 4002ff8:	000b883a 	mov	r5,zero
 4002ffc:	d13ca804 	addi	r4,gp,-3424
 4003000:	40071a80 	call	40071a8 <_ZN9IPAddressC1Ehhhh>
#include "Ethernet.h"

#include "Dhcp.h"
#include "utility/w5100.h"

IPAddress EthernetClass::_dnsServerAddress;
 4003004:	d13ca904 	addi	r4,gp,-3420
 4003008:	400717c0 	call	400717c <_ZN9IPAddressC1Ev>





EthernetClass Ethernet;
 400300c:	0001883a 	nop
 4003010:	e037883a 	mov	sp,fp
 4003014:	dfc00117 	ldw	ra,4(sp)
 4003018:	df000017 	ldw	fp,0(sp)
 400301c:	dec00204 	addi	sp,sp,8
 4003020:	f800283a 	ret

04003024 <_GLOBAL__sub_I__ZN13EthernetClass17_dnsServerAddressE>:
 4003024:	defffe04 	addi	sp,sp,-8
 4003028:	dfc00115 	stw	ra,4(sp)
 400302c:	df000015 	stw	fp,0(sp)
 4003030:	d839883a 	mov	fp,sp
 4003034:	017fffd4 	movui	r5,65535
 4003038:	01000044 	movi	r4,1
 400303c:	4002fbc0 	call	4002fbc <_Z41__static_initialization_and_destruction_0ii>
 4003040:	e037883a 	mov	sp,fp
 4003044:	dfc00117 	ldw	ra,4(sp)
 4003048:	df000017 	ldw	fp,0(sp)
 400304c:	dec00204 	addi	sp,sp,8
 4003050:	f800283a 	ret

04003054 <_ZN3UDP14beginMulticastE9IPAddresst>:
#include "utility/IPAddress.h"

class UDP  {
public:
  virtual uint8_t begin(uint16_t) =0;  // initialize, start listening on specified port. Returns 1 if successful, 0 if there are no sockets available to use
  virtual uint8_t beginMulticast(IPAddress, uint16_t) { return 0; }  // initialize, start listening on specified multicast IP address and port. Returns 1 if successful, 0 on failure
 4003054:	defffc04 	addi	sp,sp,-16
 4003058:	df000315 	stw	fp,12(sp)
 400305c:	df000304 	addi	fp,sp,12
 4003060:	e13ffd15 	stw	r4,-12(fp)
 4003064:	e17ffe15 	stw	r5,-8(fp)
 4003068:	3005883a 	mov	r2,r6
 400306c:	e0bfff0d 	sth	r2,-4(fp)
 4003070:	0005883a 	mov	r2,zero
 4003074:	e037883a 	mov	sp,fp
 4003078:	df000017 	ldw	fp,0(sp)
 400307c:	dec00104 	addi	sp,sp,4
 4003080:	f800283a 	ret

04003084 <_ZN3UDPC1Ev>:
#ifndef udp_h
#define udp_h

#include "utility/IPAddress.h"

class UDP  {
 4003084:	defffe04 	addi	sp,sp,-8
 4003088:	df000115 	stw	fp,4(sp)
 400308c:	df000104 	addi	fp,sp,4
 4003090:	e13fff15 	stw	r4,-4(fp)
 4003094:	008100b4 	movhi	r2,1026
 4003098:	10a93904 	addi	r2,r2,-23324
 400309c:	e0ffff17 	ldw	r3,-4(fp)
 40030a0:	18800015 	stw	r2,0(r3)
 40030a4:	0001883a 	nop
 40030a8:	e037883a 	mov	sp,fp
 40030ac:	df000017 	ldw	fp,0(sp)
 40030b0:	dec00104 	addi	sp,sp,4
 40030b4:	f800283a 	ret

040030b8 <_ZN11EthernetUDPC1Ev>:
protected:
	uint8_t sockindex;
	uint16_t _remaining; // remaining bytes of incoming packet yet to be processed

public:
	EthernetUDP() : sockindex(MAX_SOCK_NUM) {}  // Constructor
 40030b8:	defffd04 	addi	sp,sp,-12
 40030bc:	dfc00215 	stw	ra,8(sp)
 40030c0:	df000115 	stw	fp,4(sp)
 40030c4:	df000104 	addi	fp,sp,4
 40030c8:	e13fff15 	stw	r4,-4(fp)
 40030cc:	e0bfff17 	ldw	r2,-4(fp)
 40030d0:	1009883a 	mov	r4,r2
 40030d4:	40030840 	call	4003084 <_ZN3UDPC1Ev>
 40030d8:	008100b4 	movhi	r2,1026
 40030dc:	10a98904 	addi	r2,r2,-23004
 40030e0:	e0ffff17 	ldw	r3,-4(fp)
 40030e4:	18800015 	stw	r2,0(r3)
 40030e8:	e0bfff17 	ldw	r2,-4(fp)
 40030ec:	10800204 	addi	r2,r2,8
 40030f0:	1009883a 	mov	r4,r2
 40030f4:	400717c0 	call	400717c <_ZN9IPAddressC1Ev>
 40030f8:	e0bfff17 	ldw	r2,-4(fp)
 40030fc:	00c00204 	movi	r3,8
 4003100:	10c00405 	stb	r3,16(r2)
 4003104:	0001883a 	nop
 4003108:	e037883a 	mov	sp,fp
 400310c:	dfc00117 	ldw	ra,4(sp)
 4003110:	df000017 	ldw	fp,0(sp)
 4003114:	dec00204 	addi	sp,sp,8
 4003118:	f800283a 	ret

0400311c <_ZN10W5100Class12setGatewayIpEPKh>:
class W5100Class {

public:
  static uint8_t init(void);

  inline void setGatewayIp(const uint8_t * addr) { writeGAR(addr); }
 400311c:	defffc04 	addi	sp,sp,-16
 4003120:	dfc00315 	stw	ra,12(sp)
 4003124:	df000215 	stw	fp,8(sp)
 4003128:	df000204 	addi	fp,sp,8
 400312c:	e13ffe15 	stw	r4,-8(fp)
 4003130:	e17fff15 	stw	r5,-4(fp)
 4003134:	e13fff17 	ldw	r4,-4(fp)
 4003138:	40033a80 	call	40033a8 <_ZN10W5100Class8writeGAREPKh>
 400313c:	0001883a 	nop
 4003140:	e037883a 	mov	sp,fp
 4003144:	dfc00117 	ldw	ra,4(sp)
 4003148:	df000017 	ldw	fp,0(sp)
 400314c:	dec00204 	addi	sp,sp,8
 4003150:	f800283a 	ret

04003154 <_ZN10W5100Class12getGatewayIpEPh>:
  inline void getGatewayIp(uint8_t * addr) { readGAR(addr); }
 4003154:	defffc04 	addi	sp,sp,-16
 4003158:	dfc00315 	stw	ra,12(sp)
 400315c:	df000215 	stw	fp,8(sp)
 4003160:	df000204 	addi	fp,sp,8
 4003164:	e13ffe15 	stw	r4,-8(fp)
 4003168:	e17fff15 	stw	r5,-4(fp)
 400316c:	e13fff17 	ldw	r4,-4(fp)
 4003170:	40033e00 	call	40033e0 <_ZN10W5100Class7readGAREPh>
 4003174:	0001883a 	nop
 4003178:	e037883a 	mov	sp,fp
 400317c:	dfc00117 	ldw	ra,4(sp)
 4003180:	df000017 	ldw	fp,0(sp)
 4003184:	dec00204 	addi	sp,sp,8
 4003188:	f800283a 	ret

0400318c <_ZN10W5100Class13setSubnetMaskEPKh>:

  inline void setSubnetMask(const uint8_t * addr) { writeSUBR(addr); }
 400318c:	defffc04 	addi	sp,sp,-16
 4003190:	dfc00315 	stw	ra,12(sp)
 4003194:	df000215 	stw	fp,8(sp)
 4003198:	df000204 	addi	fp,sp,8
 400319c:	e13ffe15 	stw	r4,-8(fp)
 40031a0:	e17fff15 	stw	r5,-4(fp)
 40031a4:	e13fff17 	ldw	r4,-4(fp)
 40031a8:	40034180 	call	4003418 <_ZN10W5100Class9writeSUBREPKh>
 40031ac:	0001883a 	nop
 40031b0:	e037883a 	mov	sp,fp
 40031b4:	dfc00117 	ldw	ra,4(sp)
 40031b8:	df000017 	ldw	fp,0(sp)
 40031bc:	dec00204 	addi	sp,sp,8
 40031c0:	f800283a 	ret

040031c4 <_ZN10W5100Class13getSubnetMaskEPh>:
  inline void getSubnetMask(uint8_t * addr) { readSUBR(addr); }
 40031c4:	defffc04 	addi	sp,sp,-16
 40031c8:	dfc00315 	stw	ra,12(sp)
 40031cc:	df000215 	stw	fp,8(sp)
 40031d0:	df000204 	addi	fp,sp,8
 40031d4:	e13ffe15 	stw	r4,-8(fp)
 40031d8:	e17fff15 	stw	r5,-4(fp)
 40031dc:	e13fff17 	ldw	r4,-4(fp)
 40031e0:	40034500 	call	4003450 <_ZN10W5100Class8readSUBREPh>
 40031e4:	0001883a 	nop
 40031e8:	e037883a 	mov	sp,fp
 40031ec:	dfc00117 	ldw	ra,4(sp)
 40031f0:	df000017 	ldw	fp,0(sp)
 40031f4:	dec00204 	addi	sp,sp,8
 40031f8:	f800283a 	ret

040031fc <_ZN10W5100Class13setMACAddressEPKh>:

  inline void setMACAddress(const uint8_t * addr) { writeSHAR(addr); }
 40031fc:	defffc04 	addi	sp,sp,-16
 4003200:	dfc00315 	stw	ra,12(sp)
 4003204:	df000215 	stw	fp,8(sp)
 4003208:	df000204 	addi	fp,sp,8
 400320c:	e13ffe15 	stw	r4,-8(fp)
 4003210:	e17fff15 	stw	r5,-4(fp)
 4003214:	e13fff17 	ldw	r4,-4(fp)
 4003218:	40034880 	call	4003488 <_ZN10W5100Class9writeSHAREPKh>
 400321c:	0001883a 	nop
 4003220:	e037883a 	mov	sp,fp
 4003224:	dfc00117 	ldw	ra,4(sp)
 4003228:	df000017 	ldw	fp,0(sp)
 400322c:	dec00204 	addi	sp,sp,8
 4003230:	f800283a 	ret

04003234 <_ZN10W5100Class13getMACAddressEPh>:
  inline void getMACAddress(uint8_t * addr) { readSHAR(addr); }
 4003234:	defffc04 	addi	sp,sp,-16
 4003238:	dfc00315 	stw	ra,12(sp)
 400323c:	df000215 	stw	fp,8(sp)
 4003240:	df000204 	addi	fp,sp,8
 4003244:	e13ffe15 	stw	r4,-8(fp)
 4003248:	e17fff15 	stw	r5,-4(fp)
 400324c:	e13fff17 	ldw	r4,-4(fp)
 4003250:	40034c00 	call	40034c0 <_ZN10W5100Class8readSHAREPh>
 4003254:	0001883a 	nop
 4003258:	e037883a 	mov	sp,fp
 400325c:	dfc00117 	ldw	ra,4(sp)
 4003260:	df000017 	ldw	fp,0(sp)
 4003264:	dec00204 	addi	sp,sp,8
 4003268:	f800283a 	ret

0400326c <_ZN10W5100Class12setIPAddressEPKh>:

  inline void setIPAddress(const uint8_t * addr) { writeSIPR(addr); }
 400326c:	defffc04 	addi	sp,sp,-16
 4003270:	dfc00315 	stw	ra,12(sp)
 4003274:	df000215 	stw	fp,8(sp)
 4003278:	df000204 	addi	fp,sp,8
 400327c:	e13ffe15 	stw	r4,-8(fp)
 4003280:	e17fff15 	stw	r5,-4(fp)
 4003284:	e13fff17 	ldw	r4,-4(fp)
 4003288:	40034f80 	call	40034f8 <_ZN10W5100Class9writeSIPREPKh>
 400328c:	0001883a 	nop
 4003290:	e037883a 	mov	sp,fp
 4003294:	dfc00117 	ldw	ra,4(sp)
 4003298:	df000017 	ldw	fp,0(sp)
 400329c:	dec00204 	addi	sp,sp,8
 40032a0:	f800283a 	ret

040032a4 <_ZN10W5100Class12getIPAddressEPh>:
  inline void getIPAddress(uint8_t * addr) { readSIPR(addr); }
 40032a4:	defffc04 	addi	sp,sp,-16
 40032a8:	dfc00315 	stw	ra,12(sp)
 40032ac:	df000215 	stw	fp,8(sp)
 40032b0:	df000204 	addi	fp,sp,8
 40032b4:	e13ffe15 	stw	r4,-8(fp)
 40032b8:	e17fff15 	stw	r5,-4(fp)
 40032bc:	e13fff17 	ldw	r4,-4(fp)
 40032c0:	40035300 	call	4003530 <_ZN10W5100Class8readSIPREPh>
 40032c4:	0001883a 	nop
 40032c8:	e037883a 	mov	sp,fp
 40032cc:	dfc00117 	ldw	ra,4(sp)
 40032d0:	df000017 	ldw	fp,0(sp)
 40032d4:	dec00204 	addi	sp,sp,8
 40032d8:	f800283a 	ret

040032dc <_ZN10W5100Class21setRetransmissionTimeEt>:

  inline void setRetransmissionTime(uint16_t timeout) { writeRTR(timeout); }
 40032dc:	defffc04 	addi	sp,sp,-16
 40032e0:	dfc00315 	stw	ra,12(sp)
 40032e4:	df000215 	stw	fp,8(sp)
 40032e8:	df000204 	addi	fp,sp,8
 40032ec:	e13ffe15 	stw	r4,-8(fp)
 40032f0:	2805883a 	mov	r2,r5
 40032f4:	e0bfff0d 	sth	r2,-4(fp)
 40032f8:	e0bfff0b 	ldhu	r2,-4(fp)
 40032fc:	1009883a 	mov	r4,r2
 4003300:	40035680 	call	4003568 <_ZN10W5100Class8writeRTREt>
 4003304:	0001883a 	nop
 4003308:	e037883a 	mov	sp,fp
 400330c:	dfc00117 	ldw	ra,4(sp)
 4003310:	df000017 	ldw	fp,0(sp)
 4003314:	dec00204 	addi	sp,sp,8
 4003318:	f800283a 	ret

0400331c <_ZN10W5100Class22setRetransmissionCountEh>:
  inline void setRetransmissionCount(uint8_t retry) { writeRCR(retry); }
 400331c:	defffc04 	addi	sp,sp,-16
 4003320:	dfc00315 	stw	ra,12(sp)
 4003324:	df000215 	stw	fp,8(sp)
 4003328:	df000204 	addi	fp,sp,8
 400332c:	e13ffe15 	stw	r4,-8(fp)
 4003330:	2805883a 	mov	r2,r5
 4003334:	e0bfff05 	stb	r2,-4(fp)
 4003338:	e0bfff03 	ldbu	r2,-4(fp)
 400333c:	1009883a 	mov	r4,r2
 4003340:	40035bc0 	call	40035bc <_ZN10W5100Class8writeRCREh>
 4003344:	0001883a 	nop
 4003348:	e037883a 	mov	sp,fp
 400334c:	dfc00117 	ldw	ra,4(sp)
 4003350:	df000017 	ldw	fp,0(sp)
 4003354:	dec00204 	addi	sp,sp,8
 4003358:	f800283a 	ret

0400335c <_ZN10W5100Class5writeEth>:
  // W5100 Registers
  // ---------------
//private:
public:
  static uint16_t write(uint16_t addr, const uint8_t *buf, uint16_t len);
  static uint8_t write(uint16_t addr, uint8_t data) {
 400335c:	defffc04 	addi	sp,sp,-16
 4003360:	dfc00315 	stw	ra,12(sp)
 4003364:	df000215 	stw	fp,8(sp)
 4003368:	df000204 	addi	fp,sp,8
 400336c:	2007883a 	mov	r3,r4
 4003370:	2805883a 	mov	r2,r5
 4003374:	e0fffe0d 	sth	r3,-8(fp)
 4003378:	e0bfff05 	stb	r2,-4(fp)
    return write(addr, &data, 1);
 400337c:	e0bffe0b 	ldhu	r2,-8(fp)
 4003380:	e0ffff04 	addi	r3,fp,-4
 4003384:	01800044 	movi	r6,1
 4003388:	180b883a 	mov	r5,r3
 400338c:	1009883a 	mov	r4,r2
 4003390:	4007bcc0 	call	4007bcc <_ZN10W5100Class5writeEtPKht>
  }
 4003394:	e037883a 	mov	sp,fp
 4003398:	dfc00117 	ldw	ra,4(sp)
 400339c:	df000017 	ldw	fp,0(sp)
 40033a0:	dec00204 	addi	sp,sp,8
 40033a4:	f800283a 	ret

040033a8 <_ZN10W5100Class8writeGAREPKh>:
  }
  static W5100Linkstatus getLinkStatus();

public:
  __GP_REGISTER8 (MR,     0x0000);    // Mode
  __GP_REGISTER_N(GAR,    0x0001, 4); // Gateway IP address
 40033a8:	defffd04 	addi	sp,sp,-12
 40033ac:	dfc00215 	stw	ra,8(sp)
 40033b0:	df000115 	stw	fp,4(sp)
 40033b4:	df000104 	addi	fp,sp,4
 40033b8:	e13fff15 	stw	r4,-4(fp)
 40033bc:	01800104 	movi	r6,4
 40033c0:	e17fff17 	ldw	r5,-4(fp)
 40033c4:	01000044 	movi	r4,1
 40033c8:	4007bcc0 	call	4007bcc <_ZN10W5100Class5writeEtPKht>
 40033cc:	e037883a 	mov	sp,fp
 40033d0:	dfc00117 	ldw	ra,4(sp)
 40033d4:	df000017 	ldw	fp,0(sp)
 40033d8:	dec00204 	addi	sp,sp,8
 40033dc:	f800283a 	ret

040033e0 <_ZN10W5100Class7readGAREPh>:
 40033e0:	defffd04 	addi	sp,sp,-12
 40033e4:	dfc00215 	stw	ra,8(sp)
 40033e8:	df000115 	stw	fp,4(sp)
 40033ec:	df000104 	addi	fp,sp,4
 40033f0:	e13fff15 	stw	r4,-4(fp)
 40033f4:	01800104 	movi	r6,4
 40033f8:	e17fff17 	ldw	r5,-4(fp)
 40033fc:	01000044 	movi	r4,1
 4003400:	4007ecc0 	call	4007ecc <_ZN10W5100Class4readEtPht>
 4003404:	e037883a 	mov	sp,fp
 4003408:	dfc00117 	ldw	ra,4(sp)
 400340c:	df000017 	ldw	fp,0(sp)
 4003410:	dec00204 	addi	sp,sp,8
 4003414:	f800283a 	ret

04003418 <_ZN10W5100Class9writeSUBREPKh>:
  __GP_REGISTER_N(SUBR,   0x0005, 4); // Subnet mask address
 4003418:	defffd04 	addi	sp,sp,-12
 400341c:	dfc00215 	stw	ra,8(sp)
 4003420:	df000115 	stw	fp,4(sp)
 4003424:	df000104 	addi	fp,sp,4
 4003428:	e13fff15 	stw	r4,-4(fp)
 400342c:	01800104 	movi	r6,4
 4003430:	e17fff17 	ldw	r5,-4(fp)
 4003434:	01000144 	movi	r4,5
 4003438:	4007bcc0 	call	4007bcc <_ZN10W5100Class5writeEtPKht>
 400343c:	e037883a 	mov	sp,fp
 4003440:	dfc00117 	ldw	ra,4(sp)
 4003444:	df000017 	ldw	fp,0(sp)
 4003448:	dec00204 	addi	sp,sp,8
 400344c:	f800283a 	ret

04003450 <_ZN10W5100Class8readSUBREPh>:
 4003450:	defffd04 	addi	sp,sp,-12
 4003454:	dfc00215 	stw	ra,8(sp)
 4003458:	df000115 	stw	fp,4(sp)
 400345c:	df000104 	addi	fp,sp,4
 4003460:	e13fff15 	stw	r4,-4(fp)
 4003464:	01800104 	movi	r6,4
 4003468:	e17fff17 	ldw	r5,-4(fp)
 400346c:	01000144 	movi	r4,5
 4003470:	4007ecc0 	call	4007ecc <_ZN10W5100Class4readEtPht>
 4003474:	e037883a 	mov	sp,fp
 4003478:	dfc00117 	ldw	ra,4(sp)
 400347c:	df000017 	ldw	fp,0(sp)
 4003480:	dec00204 	addi	sp,sp,8
 4003484:	f800283a 	ret

04003488 <_ZN10W5100Class9writeSHAREPKh>:
  __GP_REGISTER_N(SHAR,   0x0009, 6); // Source MAC address
 4003488:	defffd04 	addi	sp,sp,-12
 400348c:	dfc00215 	stw	ra,8(sp)
 4003490:	df000115 	stw	fp,4(sp)
 4003494:	df000104 	addi	fp,sp,4
 4003498:	e13fff15 	stw	r4,-4(fp)
 400349c:	01800184 	movi	r6,6
 40034a0:	e17fff17 	ldw	r5,-4(fp)
 40034a4:	01000244 	movi	r4,9
 40034a8:	4007bcc0 	call	4007bcc <_ZN10W5100Class5writeEtPKht>
 40034ac:	e037883a 	mov	sp,fp
 40034b0:	dfc00117 	ldw	ra,4(sp)
 40034b4:	df000017 	ldw	fp,0(sp)
 40034b8:	dec00204 	addi	sp,sp,8
 40034bc:	f800283a 	ret

040034c0 <_ZN10W5100Class8readSHAREPh>:
 40034c0:	defffd04 	addi	sp,sp,-12
 40034c4:	dfc00215 	stw	ra,8(sp)
 40034c8:	df000115 	stw	fp,4(sp)
 40034cc:	df000104 	addi	fp,sp,4
 40034d0:	e13fff15 	stw	r4,-4(fp)
 40034d4:	01800184 	movi	r6,6
 40034d8:	e17fff17 	ldw	r5,-4(fp)
 40034dc:	01000244 	movi	r4,9
 40034e0:	4007ecc0 	call	4007ecc <_ZN10W5100Class4readEtPht>
 40034e4:	e037883a 	mov	sp,fp
 40034e8:	dfc00117 	ldw	ra,4(sp)
 40034ec:	df000017 	ldw	fp,0(sp)
 40034f0:	dec00204 	addi	sp,sp,8
 40034f4:	f800283a 	ret

040034f8 <_ZN10W5100Class9writeSIPREPKh>:
  __GP_REGISTER_N(SIPR,   0x000F, 4); // Source IP address
 40034f8:	defffd04 	addi	sp,sp,-12
 40034fc:	dfc00215 	stw	ra,8(sp)
 4003500:	df000115 	stw	fp,4(sp)
 4003504:	df000104 	addi	fp,sp,4
 4003508:	e13fff15 	stw	r4,-4(fp)
 400350c:	01800104 	movi	r6,4
 4003510:	e17fff17 	ldw	r5,-4(fp)
 4003514:	010003c4 	movi	r4,15
 4003518:	4007bcc0 	call	4007bcc <_ZN10W5100Class5writeEtPKht>
 400351c:	e037883a 	mov	sp,fp
 4003520:	dfc00117 	ldw	ra,4(sp)
 4003524:	df000017 	ldw	fp,0(sp)
 4003528:	dec00204 	addi	sp,sp,8
 400352c:	f800283a 	ret

04003530 <_ZN10W5100Class8readSIPREPh>:
 4003530:	defffd04 	addi	sp,sp,-12
 4003534:	dfc00215 	stw	ra,8(sp)
 4003538:	df000115 	stw	fp,4(sp)
 400353c:	df000104 	addi	fp,sp,4
 4003540:	e13fff15 	stw	r4,-4(fp)
 4003544:	01800104 	movi	r6,4
 4003548:	e17fff17 	ldw	r5,-4(fp)
 400354c:	010003c4 	movi	r4,15
 4003550:	4007ecc0 	call	4007ecc <_ZN10W5100Class4readEtPht>
 4003554:	e037883a 	mov	sp,fp
 4003558:	dfc00117 	ldw	ra,4(sp)
 400355c:	df000017 	ldw	fp,0(sp)
 4003560:	dec00204 	addi	sp,sp,8
 4003564:	f800283a 	ret

04003568 <_ZN10W5100Class8writeRTREt>:
  __GP_REGISTER8 (IR,     0x0015);    // Interrupt
  __GP_REGISTER8 (IMR,    0x0016);    // Interrupt Mask
  __GP_REGISTER16(RTR,    0x0017);    // Timeout address
 4003568:	defffc04 	addi	sp,sp,-16
 400356c:	dfc00315 	stw	ra,12(sp)
 4003570:	df000215 	stw	fp,8(sp)
 4003574:	df000204 	addi	fp,sp,8
 4003578:	2005883a 	mov	r2,r4
 400357c:	e0bfff0d 	sth	r2,-4(fp)
 4003580:	e0bfff0b 	ldhu	r2,-4(fp)
 4003584:	1005d23a 	srai	r2,r2,8
 4003588:	e0bffe05 	stb	r2,-8(fp)
 400358c:	e0bfff0b 	ldhu	r2,-4(fp)
 4003590:	e0bffe45 	stb	r2,-7(fp)
 4003594:	01800084 	movi	r6,2
 4003598:	e17ffe04 	addi	r5,fp,-8
 400359c:	010005c4 	movi	r4,23
 40035a0:	4007bcc0 	call	4007bcc <_ZN10W5100Class5writeEtPKht>
 40035a4:	0001883a 	nop
 40035a8:	e037883a 	mov	sp,fp
 40035ac:	dfc00117 	ldw	ra,4(sp)
 40035b0:	df000017 	ldw	fp,0(sp)
 40035b4:	dec00204 	addi	sp,sp,8
 40035b8:	f800283a 	ret

040035bc <_ZN10W5100Class8writeRCREh>:
  __GP_REGISTER8 (RCR,    0x0019);    // Retry count
 40035bc:	defffd04 	addi	sp,sp,-12
 40035c0:	dfc00215 	stw	ra,8(sp)
 40035c4:	df000115 	stw	fp,4(sp)
 40035c8:	df000104 	addi	fp,sp,4
 40035cc:	2005883a 	mov	r2,r4
 40035d0:	e0bfff05 	stb	r2,-4(fp)
 40035d4:	e0bfff03 	ldbu	r2,-4(fp)
 40035d8:	100b883a 	mov	r5,r2
 40035dc:	01000644 	movi	r4,25
 40035e0:	400335c0 	call	400335c <_ZN10W5100Class5writeEth>
 40035e4:	0001883a 	nop
 40035e8:	e037883a 	mov	sp,fp
 40035ec:	dfc00117 	ldw	ra,4(sp)
 40035f0:	df000017 	ldw	fp,0(sp)
 40035f4:	dec00204 	addi	sp,sp,8
 40035f8:	f800283a 	ret

040035fc <_ZN10W5100Class7getChipEv>:
  static uint8_t isW5100(void);
  static uint8_t isW5200(void);
  static uint8_t isW5500(void);

public:
  static uint8_t getChip(void) { return chip; }
 40035fc:	deffff04 	addi	sp,sp,-4
 4003600:	df000015 	stw	fp,0(sp)
 4003604:	d839883a 	mov	fp,sp
 4003608:	d0bcb403 	ldbu	r2,-3376(gp)
 400360c:	e037883a 	mov	sp,fp
 4003610:	df000017 	ldw	fp,0(sp)
 4003614:	dec00104 	addi	sp,sp,4
 4003618:	f800283a 	ret

0400361c <_ZN10W5100Class5setSSEh>:

  static bool hasOffsetAddressMapping(void) {
    if (chip == 55) return true;
    return false;
  }
  static void setSS(uint8_t pin) { ss_pin = pin; }
 400361c:	defffe04 	addi	sp,sp,-8
 4003620:	df000115 	stw	fp,4(sp)
 4003624:	df000104 	addi	fp,sp,4
 4003628:	2005883a 	mov	r2,r4
 400362c:	e0bfff05 	stb	r2,-4(fp)
 4003630:	e0bfff03 	ldbu	r2,-4(fp)
 4003634:	d0a00c85 	stb	r2,-32718(gp)
 4003638:	0001883a 	nop
 400363c:	e037883a 	mov	sp,fp
 4003640:	df000017 	ldw	fp,0(sp)
 4003644:	dec00104 	addi	sp,sp,4
 4003648:	f800283a 	ret

0400364c <_ZN9DhcpClassC1Ev>:
	// TODO: make private when socket allocation moves to EthernetClass
	static uint16_t server_port[MAX_SOCK_NUM];
};


class DhcpClass {
 400364c:	defffd04 	addi	sp,sp,-12
 4003650:	dfc00215 	stw	ra,8(sp)
 4003654:	df000115 	stw	fp,4(sp)
 4003658:	df000104 	addi	fp,sp,4
 400365c:	e13fff15 	stw	r4,-4(fp)
 4003660:	e0bfff17 	ldw	r2,-4(fp)
 4003664:	10801204 	addi	r2,r2,72
 4003668:	1009883a 	mov	r4,r2
 400366c:	40030b80 	call	40030b8 <_ZN11EthernetUDPC1Ev>
 4003670:	0001883a 	nop
 4003674:	e037883a 	mov	sp,fp
 4003678:	dfc00117 	ldw	ra,4(sp)
 400367c:	df000017 	ldw	fp,0(sp)
 4003680:	dec00204 	addi	sp,sp,8
 4003684:	f800283a 	ret

04003688 <_ZN14EthernetClient7connectEPKct>:
#include "EthernetClient.h"
#include "utility/SPI.h"
#include "utility/w5100.h"

int EthernetClient::connect(const char * host, uint16_t port)
{
 4003688:	defff204 	addi	sp,sp,-56
 400368c:	dfc00d15 	stw	ra,52(sp)
 4003690:	df000c15 	stw	fp,48(sp)
 4003694:	df000c04 	addi	fp,sp,48
 4003698:	e13ffd15 	stw	r4,-12(fp)
 400369c:	e17ffe15 	stw	r5,-8(fp)
 40036a0:	3005883a 	mov	r2,r6
 40036a4:	e0bfff0d 	sth	r2,-4(fp)
	DNSClient dns; // Look up the host first
 40036a8:	e0bff504 	addi	r2,fp,-44
 40036ac:	1009883a 	mov	r4,r2
 40036b0:	400463c0 	call	400463c <_ZN9DNSClientC1Ev>
	IPAddress remote_addr;
 40036b4:	e0bffc04 	addi	r2,fp,-16
 40036b8:	1009883a 	mov	r4,r2
 40036bc:	400717c0 	call	400717c <_ZN9IPAddressC1Ev>

	if (_sockindex < MAX_SOCK_NUM) {
 40036c0:	e0bffd17 	ldw	r2,-12(fp)
 40036c4:	10800103 	ldbu	r2,4(r2)
 40036c8:	10803fcc 	andi	r2,r2,255
 40036cc:	10800228 	cmpgeui	r2,r2,8
 40036d0:	1000111e 	bne	r2,zero,4003718 <_ZN14EthernetClient7connectEPKct+0x90>
		if (Ethernet.socketStatus(_sockindex) != SnSR::CLOSED) {
 40036d4:	e0bffd17 	ldw	r2,-12(fp)
 40036d8:	10800103 	ldbu	r2,4(r2)
 40036dc:	10803fcc 	andi	r2,r2,255
 40036e0:	1009883a 	mov	r4,r2
 40036e4:	4005c840 	call	4005c84 <_ZN13EthernetClass12socketStatusEh>
 40036e8:	10803fcc 	andi	r2,r2,255
 40036ec:	1004c03a 	cmpne	r2,r2,zero
 40036f0:	10803fcc 	andi	r2,r2,255
 40036f4:	10000526 	beq	r2,zero,400370c <_ZN14EthernetClient7connectEPKct+0x84>
			Ethernet.socketDisconnect(_sockindex); // TODO: should we call stop()?
 40036f8:	e0bffd17 	ldw	r2,-12(fp)
 40036fc:	10800103 	ldbu	r2,4(r2)
 4003700:	10803fcc 	andi	r2,r2,255
 4003704:	1009883a 	mov	r4,r2
 4003708:	4005e0c0 	call	4005e0c <_ZN13EthernetClass16socketDisconnectEh>
		}
		_sockindex = MAX_SOCK_NUM;
 400370c:	e0bffd17 	ldw	r2,-12(fp)
 4003710:	00c00204 	movi	r3,8
 4003714:	10c00105 	stb	r3,4(r2)
	}
	dns.begin(Ethernet.dnsServerIP());
 4003718:	40042e80 	call	40042e8 <_ZN13EthernetClass11dnsServerIPEv>
 400371c:	e0bff415 	stw	r2,-48(fp)
 4003720:	e0bff504 	addi	r2,fp,-44
 4003724:	e17ff404 	addi	r5,fp,-48
 4003728:	1009883a 	mov	r4,r2
 400372c:	4001aa80 	call	4001aa8 <_ZN9DNSClient5beginERK9IPAddress>
	if (!dns.getHostByName(host, remote_addr)) return 0; // TODO: use _timeout
 4003730:	e0fffc04 	addi	r3,fp,-16
 4003734:	e0bff504 	addi	r2,fp,-44
 4003738:	01c4e204 	movi	r7,5000
 400373c:	180d883a 	mov	r6,r3
 4003740:	e17ffe17 	ldw	r5,-8(fp)
 4003744:	1009883a 	mov	r4,r2
 4003748:	4001c180 	call	4001c18 <_ZN9DNSClient13getHostByNameEPKcR9IPAddresst>
 400374c:	1005003a 	cmpeq	r2,r2,zero
 4003750:	10803fcc 	andi	r2,r2,255
 4003754:	10000226 	beq	r2,zero,4003760 <_ZN14EthernetClient7connectEPKct+0xd8>
 4003758:	0005883a 	mov	r2,zero
 400375c:	00000806 	br	4003780 <_ZN14EthernetClient7connectEPKct+0xf8>
	return connect(remote_addr, port);
 4003760:	e0bffd17 	ldw	r2,-12(fp)
 4003764:	10800017 	ldw	r2,0(r2)
 4003768:	10800017 	ldw	r2,0(r2)
 400376c:	e0ffff0b 	ldhu	r3,-4(fp)
 4003770:	180d883a 	mov	r6,r3
 4003774:	e17ffc17 	ldw	r5,-16(fp)
 4003778:	e13ffd17 	ldw	r4,-12(fp)
 400377c:	103ee83a 	callr	r2
}
 4003780:	e037883a 	mov	sp,fp
 4003784:	dfc00117 	ldw	ra,4(sp)
 4003788:	df000017 	ldw	fp,0(sp)
 400378c:	dec00204 	addi	sp,sp,8
 4003790:	f800283a 	ret

04003794 <_ZN14EthernetClient7connectE9IPAddresst>:

int EthernetClient::connect(IPAddress ip, uint16_t port)
{
 4003794:	deffe004 	addi	sp,sp,-128
 4003798:	dfc01f15 	stw	ra,124(sp)
 400379c:	df001e15 	stw	fp,120(sp)
 40037a0:	ddc01d15 	stw	r23,116(sp)
 40037a4:	dd801c15 	stw	r22,112(sp)
 40037a8:	dd401b15 	stw	r21,108(sp)
 40037ac:	dd001a15 	stw	r20,104(sp)
 40037b0:	dcc01915 	stw	r19,100(sp)
 40037b4:	dc801815 	stw	r18,96(sp)
 40037b8:	dc401715 	stw	r17,92(sp)
 40037bc:	dc001615 	stw	r16,88(sp)
 40037c0:	df001e04 	addi	fp,sp,120
 40037c4:	e13fe615 	stw	r4,-104(fp)
 40037c8:	e17fe715 	stw	r5,-100(fp)
 40037cc:	3005883a 	mov	r2,r6
 40037d0:	e0bfe80d 	sth	r2,-96(fp)
 40037d4:	00810074 	movhi	r2,1025
 40037d8:	10a45304 	addi	r2,r2,-28340
 40037dc:	e0bfef15 	stw	r2,-68(fp)
 40037e0:	008100b4 	movhi	r2,1026
 40037e4:	10a90e04 	addi	r2,r2,-23496
 40037e8:	e0bff015 	stw	r2,-64(fp)
 40037ec:	e0bff104 	addi	r2,fp,-60
 40037f0:	e0ffe204 	addi	r3,fp,-120
 40037f4:	10c00015 	stw	r3,0(r2)
 40037f8:	00c10034 	movhi	r3,1024
 40037fc:	18ce9304 	addi	r3,r3,14924
 4003800:	10c00115 	stw	r3,4(r2)
 4003804:	16c00215 	stw	sp,8(r2)
 4003808:	e0bfe904 	addi	r2,fp,-92
 400380c:	1009883a 	mov	r4,r2
 4003810:	400a8980 	call	400a898 <_Unwind_SjLj_Register>
	if (_sockindex < MAX_SOCK_NUM) {
 4003814:	e0bfe617 	ldw	r2,-104(fp)
 4003818:	10800103 	ldbu	r2,4(r2)
 400381c:	10803fcc 	andi	r2,r2,255
 4003820:	10800228 	cmpgeui	r2,r2,8
 4003824:	1000131e 	bne	r2,zero,4003874 <_ZN14EthernetClient7connectE9IPAddresst+0xe0>
		if (Ethernet.socketStatus(_sockindex) != SnSR::CLOSED) {
 4003828:	e0bfe617 	ldw	r2,-104(fp)
 400382c:	10800103 	ldbu	r2,4(r2)
 4003830:	10c03fcc 	andi	r3,r2,255
 4003834:	00bfffc4 	movi	r2,-1
 4003838:	e0bfea15 	stw	r2,-88(fp)
 400383c:	1809883a 	mov	r4,r3
 4003840:	4005c840 	call	4005c84 <_ZN13EthernetClass12socketStatusEh>
 4003844:	10803fcc 	andi	r2,r2,255
 4003848:	1004c03a 	cmpne	r2,r2,zero
 400384c:	10803fcc 	andi	r2,r2,255
 4003850:	10000526 	beq	r2,zero,4003868 <_ZN14EthernetClient7connectE9IPAddresst+0xd4>
			Ethernet.socketDisconnect(_sockindex); // TODO: should we call stop()?
 4003854:	e0bfe617 	ldw	r2,-104(fp)
 4003858:	10800103 	ldbu	r2,4(r2)
 400385c:	10803fcc 	andi	r2,r2,255
 4003860:	1009883a 	mov	r4,r2
 4003864:	4005e0c0 	call	4005e0c <_ZN13EthernetClass16socketDisconnectEh>
		}
		_sockindex = MAX_SOCK_NUM;
 4003868:	e0bfe617 	ldw	r2,-104(fp)
 400386c:	00c00204 	movi	r3,8
 4003870:	10c00105 	stb	r3,4(r2)
	}
#if defined(ESP8266) || defined(ESP32)
	if (ip == IPAddress((uint32_t)0) || ip == IPAddress(0xFFFFFFFFul)) return 0;
#else
	if (ip == IPAddress(0ul) || ip == IPAddress(0xFFFFFFFFul)) return 0;
 4003874:	e0ffe504 	addi	r3,fp,-108
 4003878:	00800044 	movi	r2,1
 400387c:	e0bfea15 	stw	r2,-88(fp)
 4003880:	000b883a 	mov	r5,zero
 4003884:	1809883a 	mov	r4,r3
 4003888:	40072180 	call	4007218 <_ZN9IPAddressC1Em>
 400388c:	e0ffe504 	addi	r3,fp,-108
 4003890:	e0bfe704 	addi	r2,fp,-100
 4003894:	180b883a 	mov	r5,r3
 4003898:	1009883a 	mov	r4,r2
 400389c:	4001a200 	call	4001a20 <_ZNK9IPAddresseqERKS_>
 40038a0:	10803fcc 	andi	r2,r2,255
 40038a4:	10000b1e 	bne	r2,zero,40038d4 <_ZN14EthernetClient7connectE9IPAddresst+0x140>
 40038a8:	e0bfe404 	addi	r2,fp,-112
 40038ac:	017fffc4 	movi	r5,-1
 40038b0:	1009883a 	mov	r4,r2
 40038b4:	40072180 	call	4007218 <_ZN9IPAddressC1Em>
 40038b8:	e0ffe404 	addi	r3,fp,-112
 40038bc:	e0bfe704 	addi	r2,fp,-100
 40038c0:	180b883a 	mov	r5,r3
 40038c4:	1009883a 	mov	r4,r2
 40038c8:	4001a200 	call	4001a20 <_ZNK9IPAddresseqERKS_>
 40038cc:	10803fcc 	andi	r2,r2,255
 40038d0:	10000226 	beq	r2,zero,40038dc <_ZN14EthernetClient7connectE9IPAddresst+0x148>
 40038d4:	00800044 	movi	r2,1
 40038d8:	00000106 	br	40038e0 <_ZN14EthernetClient7connectE9IPAddresst+0x14c>
 40038dc:	0005883a 	mov	r2,zero
 40038e0:	10803fcc 	andi	r2,r2,255
 40038e4:	10000226 	beq	r2,zero,40038f0 <_ZN14EthernetClient7connectE9IPAddresst+0x15c>
 40038e8:	0005883a 	mov	r2,zero
 40038ec:	00005506 	br	4003a44 <_ZN14EthernetClient7connectE9IPAddresst+0x2b0>
#endif
	_sockindex = Ethernet.socketBegin(SnMR::TCP, 0);
 40038f0:	00bfffc4 	movi	r2,-1
 40038f4:	e0bfea15 	stw	r2,-88(fp)
 40038f8:	000b883a 	mov	r5,zero
 40038fc:	01000844 	movi	r4,33
 4003900:	40056780 	call	4005678 <_ZN13EthernetClass11socketBeginEht>
 4003904:	1007883a 	mov	r3,r2
 4003908:	e0bfe617 	ldw	r2,-104(fp)
 400390c:	10c00105 	stb	r3,4(r2)
	if (_sockindex >= MAX_SOCK_NUM) return 0;
 4003910:	e0bfe617 	ldw	r2,-104(fp)
 4003914:	10800103 	ldbu	r2,4(r2)
 4003918:	10803fcc 	andi	r2,r2,255
 400391c:	10800230 	cmpltui	r2,r2,8
 4003920:	1000021e 	bne	r2,zero,400392c <_ZN14EthernetClient7connectE9IPAddresst+0x198>
 4003924:	0005883a 	mov	r2,zero
 4003928:	00004606 	br	4003a44 <_ZN14EthernetClient7connectE9IPAddresst+0x2b0>
	Ethernet.socketConnect(_sockindex, rawIPAddress(ip), port);
 400392c:	e0bfe617 	ldw	r2,-104(fp)
 4003930:	10800103 	ldbu	r2,4(r2)
 4003934:	10803fcc 	andi	r2,r2,255
 4003938:	e0bff615 	stw	r2,-40(fp)
 400393c:	e0bfe617 	ldw	r2,-104(fp)
 4003940:	e0ffe704 	addi	r3,fp,-100
 4003944:	180b883a 	mov	r5,r3
 4003948:	1009883a 	mov	r4,r2
 400394c:	40042b40 	call	40042b4 <_ZN6Client12rawIPAddressER9IPAddress>
 4003950:	1009883a 	mov	r4,r2
 4003954:	e0ffe80b 	ldhu	r3,-96(fp)
 4003958:	00bfffc4 	movi	r2,-1
 400395c:	e0bfea15 	stw	r2,-88(fp)
 4003960:	180d883a 	mov	r6,r3
 4003964:	200b883a 	mov	r5,r4
 4003968:	e13ff617 	ldw	r4,-40(fp)
 400396c:	4005d900 	call	4005d90 <_ZN13EthernetClass13socketConnectEhPht>
	uint32_t start = millis();
 4003970:	40075380 	call	4007538 <_Z6millisv>
 4003974:	e0bfe215 	stw	r2,-120(fp)
	while (1) {
		uint8_t stat = Ethernet.socketStatus(_sockindex);
 4003978:	e0bfe617 	ldw	r2,-104(fp)
 400397c:	10800103 	ldbu	r2,4(r2)
 4003980:	10c03fcc 	andi	r3,r2,255
 4003984:	00bfffc4 	movi	r2,-1
 4003988:	e0bfea15 	stw	r2,-88(fp)
 400398c:	1809883a 	mov	r4,r3
 4003990:	4005c840 	call	4005c84 <_ZN13EthernetClass12socketStatusEh>
 4003994:	e0bfe305 	stb	r2,-116(fp)
		if (stat == SnSR::ESTABLISHED) return 1;
 4003998:	e0bfe303 	ldbu	r2,-116(fp)
 400399c:	108005d8 	cmpnei	r2,r2,23
 40039a0:	1000021e 	bne	r2,zero,40039ac <_ZN14EthernetClient7connectE9IPAddresst+0x218>
 40039a4:	00800044 	movi	r2,1
 40039a8:	00002606 	br	4003a44 <_ZN14EthernetClient7connectE9IPAddresst+0x2b0>
		if (stat == SnSR::CLOSE_WAIT) return 1;
 40039ac:	e0bfe303 	ldbu	r2,-116(fp)
 40039b0:	10800718 	cmpnei	r2,r2,28
 40039b4:	1000021e 	bne	r2,zero,40039c0 <_ZN14EthernetClient7connectE9IPAddresst+0x22c>
 40039b8:	00800044 	movi	r2,1
 40039bc:	00002106 	br	4003a44 <_ZN14EthernetClient7connectE9IPAddresst+0x2b0>
		if (stat == SnSR::CLOSED) return 0;
 40039c0:	e0bfe303 	ldbu	r2,-116(fp)
 40039c4:	1000021e 	bne	r2,zero,40039d0 <_ZN14EthernetClient7connectE9IPAddresst+0x23c>
 40039c8:	0005883a 	mov	r2,zero
 40039cc:	00001d06 	br	4003a44 <_ZN14EthernetClient7connectE9IPAddresst+0x2b0>
		if (millis() - start > _timeout) break;
 40039d0:	00bfffc4 	movi	r2,-1
 40039d4:	e0bfea15 	stw	r2,-88(fp)
 40039d8:	40075380 	call	4007538 <_Z6millisv>
 40039dc:	1007883a 	mov	r3,r2
 40039e0:	e0bfe217 	ldw	r2,-120(fp)
 40039e4:	1885c83a 	sub	r2,r3,r2
 40039e8:	e0ffe617 	ldw	r3,-104(fp)
 40039ec:	18c0018b 	ldhu	r3,6(r3)
 40039f0:	18ffffcc 	andi	r3,r3,65535
 40039f4:	1885803a 	cmpltu	r2,r3,r2
 40039f8:	10803fcc 	andi	r2,r2,255
 40039fc:	1000051e 	bne	r2,zero,4003a14 <_ZN14EthernetClient7connectE9IPAddresst+0x280>
		delay(1);
 4003a00:	00bfffc4 	movi	r2,-1
 4003a04:	e0bfea15 	stw	r2,-88(fp)
 4003a08:	01000044 	movi	r4,1
 4003a0c:	40074fc0 	call	40074fc <_Z5delayj>
#endif
	_sockindex = Ethernet.socketBegin(SnMR::TCP, 0);
	if (_sockindex >= MAX_SOCK_NUM) return 0;
	Ethernet.socketConnect(_sockindex, rawIPAddress(ip), port);
	uint32_t start = millis();
	while (1) {
 4003a10:	003fd906 	br	4003978 <__alt_data_end+0xfc003978>
		uint8_t stat = Ethernet.socketStatus(_sockindex);
		if (stat == SnSR::ESTABLISHED) return 1;
		if (stat == SnSR::CLOSE_WAIT) return 1;
		if (stat == SnSR::CLOSED) return 0;
		if (millis() - start > _timeout) break;
 4003a14:	0001883a 	nop
		delay(1);
	}
	Ethernet.socketClose(_sockindex);
 4003a18:	e0bfe617 	ldw	r2,-104(fp)
 4003a1c:	10800103 	ldbu	r2,4(r2)
 4003a20:	10c03fcc 	andi	r3,r2,255
 4003a24:	00bfffc4 	movi	r2,-1
 4003a28:	e0bfea15 	stw	r2,-88(fp)
 4003a2c:	1809883a 	mov	r4,r3
 4003a30:	4005cd00 	call	4005cd0 <_ZN13EthernetClass11socketCloseEh>
	_sockindex = MAX_SOCK_NUM;
 4003a34:	e0bfe617 	ldw	r2,-104(fp)
 4003a38:	00c00204 	movi	r3,8
 4003a3c:	10c00105 	stb	r3,4(r2)
	return 0;
 4003a40:	0005883a 	mov	r2,zero
 4003a44:	e0bff715 	stw	r2,-36(fp)
 4003a48:	00000806 	br	4003a6c <_ZN14EthernetClient7connectE9IPAddresst+0x2d8>
 4003a4c:	e7001e04 	addi	fp,fp,120
 4003a50:	e0bfeb17 	ldw	r2,-84(fp)
		_sockindex = MAX_SOCK_NUM;
	}
#if defined(ESP8266) || defined(ESP32)
	if (ip == IPAddress((uint32_t)0) || ip == IPAddress(0xFFFFFFFFul)) return 0;
#else
	if (ip == IPAddress(0ul) || ip == IPAddress(0xFFFFFFFFul)) return 0;
 4003a54:	0001883a 	nop
 4003a58:	1007883a 	mov	r3,r2
 4003a5c:	00bfffc4 	movi	r2,-1
 4003a60:	e0bfea15 	stw	r2,-88(fp)
 4003a64:	1809883a 	mov	r4,r3
 4003a68:	400aa940 	call	400aa94 <_Unwind_SjLj_Resume>
 4003a6c:	e0bfe904 	addi	r2,fp,-92
 4003a70:	1009883a 	mov	r4,r2
 4003a74:	400a8b00 	call	400a8b0 <_Unwind_SjLj_Unregister>
		delay(1);
	}
	Ethernet.socketClose(_sockindex);
	_sockindex = MAX_SOCK_NUM;
	return 0;
}
 4003a78:	e0bff717 	ldw	r2,-36(fp)
 4003a7c:	e6fff804 	addi	sp,fp,-32
 4003a80:	dfc00917 	ldw	ra,36(sp)
 4003a84:	df000817 	ldw	fp,32(sp)
 4003a88:	ddc00717 	ldw	r23,28(sp)
 4003a8c:	dd800617 	ldw	r22,24(sp)
 4003a90:	dd400517 	ldw	r21,20(sp)
 4003a94:	dd000417 	ldw	r20,16(sp)
 4003a98:	dcc00317 	ldw	r19,12(sp)
 4003a9c:	dc800217 	ldw	r18,8(sp)
 4003aa0:	dc400117 	ldw	r17,4(sp)
 4003aa4:	dc000017 	ldw	r16,0(sp)
 4003aa8:	dec00a04 	addi	sp,sp,40
 4003aac:	f800283a 	ret

04003ab0 <_ZN14EthernetClient17availableForWriteEv>:

int EthernetClient::availableForWrite(void)
{
 4003ab0:	defffd04 	addi	sp,sp,-12
 4003ab4:	dfc00215 	stw	ra,8(sp)
 4003ab8:	df000115 	stw	fp,4(sp)
 4003abc:	df000104 	addi	fp,sp,4
 4003ac0:	e13fff15 	stw	r4,-4(fp)
	if (_sockindex >= MAX_SOCK_NUM) return 0;
 4003ac4:	e0bfff17 	ldw	r2,-4(fp)
 4003ac8:	10800103 	ldbu	r2,4(r2)
 4003acc:	10803fcc 	andi	r2,r2,255
 4003ad0:	10800230 	cmpltui	r2,r2,8
 4003ad4:	1000021e 	bne	r2,zero,4003ae0 <_ZN14EthernetClient17availableForWriteEv+0x30>
 4003ad8:	0005883a 	mov	r2,zero
 4003adc:	00000606 	br	4003af8 <_ZN14EthernetClient17availableForWriteEv+0x48>
	return Ethernet.socketSendAvailable(_sockindex);
 4003ae0:	e0bfff17 	ldw	r2,-4(fp)
 4003ae4:	10800103 	ldbu	r2,4(r2)
 4003ae8:	10803fcc 	andi	r2,r2,255
 4003aec:	1009883a 	mov	r4,r2
 4003af0:	40067240 	call	4006724 <_ZN13EthernetClass19socketSendAvailableEh>
 4003af4:	10bfffcc 	andi	r2,r2,65535
}
 4003af8:	e037883a 	mov	sp,fp
 4003afc:	dfc00117 	ldw	ra,4(sp)
 4003b00:	df000017 	ldw	fp,0(sp)
 4003b04:	dec00204 	addi	sp,sp,8
 4003b08:	f800283a 	ret

04003b0c <_ZN14EthernetClient5writeEh>:

size_t EthernetClient::write(uint8_t b)
{
 4003b0c:	defffc04 	addi	sp,sp,-16
 4003b10:	dfc00315 	stw	ra,12(sp)
 4003b14:	df000215 	stw	fp,8(sp)
 4003b18:	df000204 	addi	fp,sp,8
 4003b1c:	e13ffe15 	stw	r4,-8(fp)
 4003b20:	2805883a 	mov	r2,r5
 4003b24:	e0bfff05 	stb	r2,-4(fp)
	return write(&b, 1);
 4003b28:	e0bffe17 	ldw	r2,-8(fp)
 4003b2c:	10800017 	ldw	r2,0(r2)
 4003b30:	10800304 	addi	r2,r2,12
 4003b34:	10800017 	ldw	r2,0(r2)
 4003b38:	e0ffff04 	addi	r3,fp,-4
 4003b3c:	01800044 	movi	r6,1
 4003b40:	180b883a 	mov	r5,r3
 4003b44:	e13ffe17 	ldw	r4,-8(fp)
 4003b48:	103ee83a 	callr	r2
}
 4003b4c:	e037883a 	mov	sp,fp
